GAS LISTING C:\Users\82104\AppData\Local\Temp/ccHwZYd2.s 			page 1


   1               		.file	"lab2.c"
   2               	__SREG__ = 0x3f
   3               	__SP_H__ = 0x3e
   4               	__SP_L__ = 0x3d
   5               	__CCP__  = 0x34
   6               	__tmp_reg__ = 0
   7               	__zero_reg__ = 1
   8               		.text
   9               	.global	InitI2C
  10               		.type	InitI2C, @function
  11               	InitI2C:
  12               	/* prologue: function */
  13               	/* frame size = 0 */
  14 0000 8FEF      		ldi r24,lo8(-1)
  15 0002 84BB      		out 52-32,r24
  16 0004 8FE0      		ldi r24,lo8(15)
  17 0006 8093 6400 		sts 100,r24
  18 000a 83E0      		ldi r24,lo8(3)
  19 000c 82BB      		out 50-32,r24
  20 000e 80B5      		in r24,64-32
  21 0010 8B7F      		andi r24,lo8(-5)
  22 0012 80BD      		out 64-32,r24
  23 0014 1092 7100 		sts 113,__zero_reg__
  24 0018 80E2      		ldi r24,lo8(32)
  25 001a 8093 7000 		sts 112,r24
  26 001e 84E4      		ldi r24,lo8(68)
  27 0020 8093 7400 		sts 116,r24
  28               	/* epilogue start */
  29 0024 0895      		ret
  30               		.size	InitI2C, .-InitI2C
  31               	.global	write_twi_1byte_nopreset
  32               		.type	write_twi_1byte_nopreset, @function
  33               	write_twi_1byte_nopreset:
  34               	/* prologue: function */
  35               	/* frame size = 0 */
  36 0026 982F      		mov r25,r24
  37 0028 84EA      		ldi r24,lo8(-92)
  38 002a 8093 7400 		sts 116,r24
  39               	.L18:
  40 002e 8091 7400 		lds r24,116
  41 0032 87FF      		sbrs r24,7
  42 0034 00C0      		rjmp .L18
  43 0036 8091 7100 		lds r24,113
  44 003a 887F      		andi r24,lo8(-8)
  45 003c 8830      		cpi r24,lo8(8)
  46 003e 01F0      		breq .L5
  47 0040 8091 7100 		lds r24,113
  48 0044 887F      		andi r24,lo8(-8)
  49 0046 8031      		cpi r24,lo8(16)
  50 0048 01F4      		brne .L18
  51               	.L5:
  52 004a 88E9      		ldi r24,lo8(-104)
  53 004c 8093 7300 		sts 115,r24
  54 0050 84E8      		ldi r24,lo8(-124)
  55 0052 8093 7400 		sts 116,r24
  56               	.L19:
  57 0056 8091 7400 		lds r24,116
GAS LISTING C:\Users\82104\AppData\Local\Temp/ccHwZYd2.s 			page 2


  58 005a 87FF      		sbrs r24,7
  59 005c 00C0      		rjmp .L19
  60 005e 8091 7100 		lds r24,113
  61 0062 887F      		andi r24,lo8(-8)
  62 0064 8831      		cpi r24,lo8(24)
  63 0066 01F4      		brne .L19
  64 0068 9093 7300 		sts 115,r25
  65 006c 84E8      		ldi r24,lo8(-124)
  66 006e 8093 7400 		sts 116,r24
  67               	.L20:
  68 0072 8091 7400 		lds r24,116
  69 0076 87FF      		sbrs r24,7
  70 0078 00C0      		rjmp .L20
  71 007a 8091 7100 		lds r24,113
  72 007e 887F      		andi r24,lo8(-8)
  73 0080 8832      		cpi r24,lo8(40)
  74 0082 01F4      		brne .L20
  75 0084 6093 7300 		sts 115,r22
  76 0088 84E8      		ldi r24,lo8(-124)
  77 008a 8093 7400 		sts 116,r24
  78               	.L21:
  79 008e 8091 7400 		lds r24,116
  80 0092 87FF      		sbrs r24,7
  81 0094 00C0      		rjmp .L21
  82 0096 8091 7100 		lds r24,113
  83 009a 887F      		andi r24,lo8(-8)
  84 009c 8832      		cpi r24,lo8(40)
  85 009e 01F4      		brne .L21
  86 00a0 84E9      		ldi r24,lo8(-108)
  87 00a2 8093 7400 		sts 116,r24
  88               	/* epilogue start */
  89 00a6 0895      		ret
  90               		.size	write_twi_1byte_nopreset, .-write_twi_1byte_nopreset
  91               	.global	write_twi_0byte_nopreset
  92               		.type	write_twi_0byte_nopreset, @function
  93               	write_twi_0byte_nopreset:
  94               	/* prologue: function */
  95               	/* frame size = 0 */
  96 00a8 982F      		mov r25,r24
  97 00aa 84EA      		ldi r24,lo8(-92)
  98 00ac 8093 7400 		sts 116,r24
  99               	.L35:
 100 00b0 8091 7400 		lds r24,116
 101 00b4 87FF      		sbrs r24,7
 102 00b6 00C0      		rjmp .L35
 103 00b8 8091 7100 		lds r24,113
 104 00bc 887F      		andi r24,lo8(-8)
 105 00be 8830      		cpi r24,lo8(8)
 106 00c0 01F0      		breq .L25
 107 00c2 8091 7100 		lds r24,113
 108 00c6 887F      		andi r24,lo8(-8)
 109 00c8 8031      		cpi r24,lo8(16)
 110 00ca 01F4      		brne .L35
 111               	.L25:
 112 00cc 88E9      		ldi r24,lo8(-104)
 113 00ce 8093 7300 		sts 115,r24
 114 00d2 84E8      		ldi r24,lo8(-124)
GAS LISTING C:\Users\82104\AppData\Local\Temp/ccHwZYd2.s 			page 3


 115 00d4 8093 7400 		sts 116,r24
 116               	.L36:
 117 00d8 8091 7400 		lds r24,116
 118 00dc 87FF      		sbrs r24,7
 119 00de 00C0      		rjmp .L36
 120 00e0 8091 7100 		lds r24,113
 121 00e4 887F      		andi r24,lo8(-8)
 122 00e6 8831      		cpi r24,lo8(24)
 123 00e8 01F4      		brne .L36
 124 00ea 9093 7300 		sts 115,r25
 125 00ee 84E8      		ldi r24,lo8(-124)
 126 00f0 8093 7400 		sts 116,r24
 127               	.L37:
 128 00f4 8091 7400 		lds r24,116
 129 00f8 87FF      		sbrs r24,7
 130 00fa 00C0      		rjmp .L37
 131 00fc 8091 7100 		lds r24,113
 132 0100 887F      		andi r24,lo8(-8)
 133 0102 8832      		cpi r24,lo8(40)
 134 0104 01F4      		brne .L37
 135 0106 84E9      		ldi r24,lo8(-108)
 136 0108 8093 7400 		sts 116,r24
 137               	/* epilogue start */
 138 010c 0895      		ret
 139               		.size	write_twi_0byte_nopreset, .-write_twi_0byte_nopreset
 140               	.global	read_twi_2byte_preset
 141               		.type	read_twi_2byte_preset, @function
 142               	read_twi_2byte_preset:
 143               	/* prologue: function */
 144               	/* frame size = 0 */
 145 010e 84EA      		ldi r24,lo8(-92)
 146 0110 8093 7400 		sts 116,r24
 147               	.L53:
 148 0114 8091 7400 		lds r24,116
 149 0118 87FF      		sbrs r24,7
 150 011a 00C0      		rjmp .L53
 151 011c 8091 7100 		lds r24,113
 152 0120 887F      		andi r24,lo8(-8)
 153 0122 8830      		cpi r24,lo8(8)
 154 0124 01F0      		breq .L40
 155 0126 8091 7100 		lds r24,113
 156 012a 887F      		andi r24,lo8(-8)
 157 012c 8031      		cpi r24,lo8(16)
 158 012e 01F4      		brne .L53
 159               	.L40:
 160 0130 89E9      		ldi r24,lo8(-103)
 161 0132 8093 7300 		sts 115,r24
 162 0136 84E8      		ldi r24,lo8(-124)
 163 0138 8093 7400 		sts 116,r24
 164               	.L54:
 165 013c 8091 7400 		lds r24,116
 166 0140 87FF      		sbrs r24,7
 167 0142 00C0      		rjmp .L54
 168 0144 8091 7100 		lds r24,113
 169 0148 887F      		andi r24,lo8(-8)
 170 014a 8034      		cpi r24,lo8(64)
 171 014c 01F4      		brne .L54
GAS LISTING C:\Users\82104\AppData\Local\Temp/ccHwZYd2.s 			page 4


 172 014e 84EC      		ldi r24,lo8(-60)
 173 0150 8093 7400 		sts 116,r24
 174               	.L55:
 175 0154 8091 7400 		lds r24,116
 176 0158 87FF      		sbrs r24,7
 177 015a 00C0      		rjmp .L55
 178 015c 8091 7100 		lds r24,113
 179 0160 887F      		andi r24,lo8(-8)
 180 0162 8035      		cpi r24,lo8(80)
 181 0164 01F4      		brne .L55
 182 0166 3091 7300 		lds r19,115
 183 016a 84EC      		ldi r24,lo8(-60)
 184 016c 8093 7400 		sts 116,r24
 185               	.L56:
 186 0170 8091 7400 		lds r24,116
 187 0174 87FF      		sbrs r24,7
 188 0176 00C0      		rjmp .L56
 189 0178 8091 7100 		lds r24,113
 190 017c 887F      		andi r24,lo8(-8)
 191 017e 8035      		cpi r24,lo8(80)
 192 0180 01F4      		brne .L56
 193 0182 2091 7300 		lds r18,115
 194 0186 84E9      		ldi r24,lo8(-108)
 195 0188 8093 7400 		sts 116,r24
 196 018c 932F      		mov r25,r19
 197 018e 80E0      		ldi r24,lo8(0)
 198 0190 30E0      		ldi r19,lo8(0)
 199 0192 282B      		or r18,r24
 200 0194 392B      		or r19,r25
 201 0196 C901      		movw r24,r18
 202               	/* epilogue start */
 203 0198 0895      		ret
 204               		.size	read_twi_2byte_preset, .-read_twi_2byte_preset
 205               	.global	DisplayTemp
 206               		.type	DisplayTemp, @function
 207               	DisplayTemp:
 208 019a 6F92      		push r6
 209 019c 7F92      		push r7
 210 019e 8F92      		push r8
 211 01a0 9F92      		push r9
 212 01a2 AF92      		push r10
 213 01a4 BF92      		push r11
 214 01a6 CF92      		push r12
 215 01a8 DF92      		push r13
 216 01aa EF92      		push r14
 217 01ac FF92      		push r15
 218 01ae 0F93      		push r16
 219 01b0 1F93      		push r17
 220 01b2 DF93      		push r29
 221 01b4 CF93      		push r28
 222 01b6 CDB7      		in r28,__SP_L__
 223 01b8 DEB7      		in r29,__SP_H__
 224 01ba 6497      		sbiw r28,20
 225 01bc 0FB6      		in __tmp_reg__,__SREG__
 226 01be F894      		cli
 227 01c0 DEBF      		out __SP_H__,r29
 228 01c2 0FBE      		out __SREG__,__tmp_reg__
GAS LISTING C:\Users\82104\AppData\Local\Temp/ccHwZYd2.s 			page 5


 229 01c4 CDBF      		out __SP_L__,r28
 230               	/* prologue: function */
 231               	/* frame size = 20 */
 232 01c6 AC01      		movw r20,r24
 233 01c8 65E0      		ldi r22,lo8(5)
 234 01ca E62E      		mov r14,r22
 235 01cc F12C      		mov r15,__zero_reg__
 236 01ce EC0E      		add r14,r28
 237 01d0 FD1E      		adc r15,r29
 238 01d2 D701      		movw r26,r14
 239 01d4 E0E0      		ldi r30,lo8(C.0.1650)
 240 01d6 F0E0      		ldi r31,hi8(C.0.1650)
 241 01d8 8CE0      		ldi r24,lo8(12)
 242               	.L58:
 243 01da 0190      		ld r0,Z+
 244 01dc 0D92      		st X+,r0
 245 01de 8150      		subi r24,lo8(-(-1))
 246 01e0 01F4      		brne .L58
 247 01e2 81E0      		ldi r24,lo8(1)
 248 01e4 8983      		std Y+1,r24
 249 01e6 82E0      		ldi r24,lo8(2)
 250 01e8 8A83      		std Y+2,r24
 251 01ea 84E0      		ldi r24,lo8(4)
 252 01ec 8B83      		std Y+3,r24
 253 01ee 88E0      		ldi r24,lo8(8)
 254 01f0 8C83      		std Y+4,r24
 255 01f2 CC24      		clr r12
 256 01f4 C394      		inc r12
 257 01f6 A0E0      		ldi r26,lo8(0)
 258 01f8 B0E0      		ldi r27,hi8(0)
 259 01fa 30E4      		ldi r19,lo8(8000)
 260 01fc A32E      		mov r10,r19
 261 01fe 3FE1      		ldi r19,hi8(8000)
 262 0200 B32E      		mov r11,r19
 263 0202 21E1      		ldi r18,lo8(17)
 264 0204 622E      		mov r6,r18
 265 0206 712C      		mov r7,__zero_reg__
 266 0208 6C0E      		add r6,r28
 267 020a 7D1E      		adc r7,r29
 268 020c 4E01      		movw r8,r28
 269 020e 0894      		sec
 270 0210 811C      		adc r8,__zero_reg__
 271 0212 911C      		adc r9,__zero_reg__
 272               	.L65:
 273 0214 57FD      		sbrc r21,7
 274 0216 00C0      		rjmp .L59
 275 0218 9BE0      		ldi r25,lo8(11)
 276 021a D92E      		mov r13,r25
 277               	.L60:
 278 021c CA01      		movw r24,r20
 279 021e 8070      		andi r24,lo8(32512)
 280 0220 9F77      		andi r25,hi8(32512)
 281 0222 292F      		mov r18,r25
 282 0224 47FD      		sbrc r20,7
 283 0226 00C0      		rjmp .L61
 284 0228 00E0      		ldi r16,lo8(0)
 285 022a E0E0      		ldi r30,lo8(0)
GAS LISTING C:\Users\82104\AppData\Local\Temp/ccHwZYd2.s 			page 6


 286 022c F0E0      		ldi r31,hi8(0)
 287               	.L62:
 288 022e 822F      		mov r24,r18
 289 0230 6AE0      		ldi r22,lo8(10)
 290 0232 0E94 0000 		call __udivmodqi4
 291 0236 0E94 0000 		call __udivmodqi4
 292 023a 192F      		mov r17,r25
 293 023c 822F      		mov r24,r18
 294 023e 0E94 0000 		call __udivmodqi4
 295 0242 EE0D      		add r30,r14
 296 0244 FF1D      		adc r31,r15
 297 0246 8081      		ld r24,Z
 298 0248 85BB      		out 53-32,r24
 299 024a C092 6500 		sts 101,r12
 300 024e 20E0      		ldi r18,lo8(0)
 301 0250 30E0      		ldi r19,hi8(0)
 302               	.L71:
 303 0252 F501      		movw r30,r10
 304               	/* #APP */
 305               	 ;  105 "c:/winavr-20100110/lib/gcc/../../avr/include/util/delay_basic.h" 1
 306 0254 3197      		1: sbiw r30,1
 307 0256 01F4      		brne 1b
 308               	 ;  0 "" 2
 309               	/* #NOAPP */
 310 0258 2F5F      		subi r18,lo8(-(1))
 311 025a 3F4F      		sbci r19,hi8(-(1))
 312 025c 2430      		cpi r18,4
 313 025e 3105      		cpc r19,__zero_reg__
 314 0260 04F4      		brge .L72
 315 0262 098B      		std Y+17,r16
 316 0264 9A8B      		std Y+18,r25
 317 0266 1B8B      		std Y+19,r17
 318 0268 DC8A      		std Y+20,r13
 319 026a F301      		movw r30,r6
 320 026c E20F      		add r30,r18
 321 026e F31F      		adc r31,r19
 322 0270 8081      		ld r24,Z
 323 0272 F701      		movw r30,r14
 324 0274 E80F      		add r30,r24
 325 0276 F11D      		adc r31,__zero_reg__
 326 0278 8081      		ld r24,Z
 327 027a 85BB      		out 53-32,r24
 328 027c F401      		movw r30,r8
 329 027e E20F      		add r30,r18
 330 0280 F31F      		adc r31,r19
 331 0282 8081      		ld r24,Z
 332 0284 8093 6500 		sts 101,r24
 333 0288 2130      		cpi r18,1
 334 028a 3105      		cpc r19,__zero_reg__
 335 028c 01F4      		brne .L71
 336 028e AF9A      		sbi 53-32,7
 337 0290 00C0      		rjmp .L71
 338               	.L72:
 339 0292 1196      		adiw r26,1
 340 0294 A436      		cpi r26,100
 341 0296 B105      		cpc r27,__zero_reg__
 342 0298 01F0      		breq .+2
GAS LISTING C:\Users\82104\AppData\Local\Temp/ccHwZYd2.s 			page 7


 343 029a 00C0      		rjmp .L65
 344               	/* epilogue start */
 345 029c 6496      		adiw r28,20
 346 029e 0FB6      		in __tmp_reg__,__SREG__
 347 02a0 F894      		cli
 348 02a2 DEBF      		out __SP_H__,r29
 349 02a4 0FBE      		out __SREG__,__tmp_reg__
 350 02a6 CDBF      		out __SP_L__,r28
 351 02a8 CF91      		pop r28
 352 02aa DF91      		pop r29
 353 02ac 1F91      		pop r17
 354 02ae 0F91      		pop r16
 355 02b0 FF90      		pop r15
 356 02b2 EF90      		pop r14
 357 02b4 DF90      		pop r13
 358 02b6 CF90      		pop r12
 359 02b8 BF90      		pop r11
 360 02ba AF90      		pop r10
 361 02bc 9F90      		pop r9
 362 02be 8F90      		pop r8
 363 02c0 7F90      		pop r7
 364 02c2 6F90      		pop r6
 365 02c4 0895      		ret
 366               	.L61:
 367 02c6 05E0      		ldi r16,lo8(5)
 368 02c8 E5E0      		ldi r30,lo8(5)
 369 02ca F0E0      		ldi r31,hi8(5)
 370 02cc 00C0      		rjmp .L62
 371               	.L59:
 372 02ce 8AE0      		ldi r24,lo8(10)
 373 02d0 D82E      		mov r13,r24
 374 02d2 4095      		com r20
 375 02d4 5095      		com r21
 376 02d6 4150      		subi r20,lo8(-(-1))
 377 02d8 5040      		sbci r21,hi8(-(-1))
 378 02da 00C0      		rjmp .L60
 379               		.size	DisplayTemp, .-DisplayTemp
 380               	.global	init_adc
 381               		.type	init_adc, @function
 382               	init_adc:
 383               	/* prologue: function */
 384               	/* frame size = 0 */
 385 02dc 17B8      		out 39-32,__zero_reg__
 386 02de 87E8      		ldi r24,lo8(-121)
 387 02e0 86B9      		out 38-32,r24
 388               	/* epilogue start */
 389 02e2 0895      		ret
 390               		.size	init_adc, .-init_adc
 391               	.global	read_adc
 392               		.type	read_adc, @function
 393               	read_adc:
 394               	/* prologue: function */
 395               	/* frame size = 0 */
 396 02e4 369A      		sbi 38-32,6
 397               	.L76:
 398 02e6 349B      		sbis 38-32,4
 399 02e8 00C0      		rjmp .L76
GAS LISTING C:\Users\82104\AppData\Local\Temp/ccHwZYd2.s 			page 8


 400 02ea 24B1      		in r18,36-32
 401 02ec 45B1      		in r20,37-32
 402 02ee 942F      		mov r25,r20
 403 02f0 80E0      		ldi r24,lo8(0)
 404 02f2 30E0      		ldi r19,lo8(0)
 405 02f4 282B      		or r18,r24
 406 02f6 392B      		or r19,r25
 407 02f8 C901      		movw r24,r18
 408               	/* epilogue start */
 409 02fa 0895      		ret
 410               		.size	read_adc, .-read_adc
 411               	.global	show_adc
 412               		.type	show_adc, @function
 413               	show_adc:
 414               	/* prologue: function */
 415               	/* frame size = 0 */
 416 02fc 883C      		cpi r24,200
 417 02fe 9105      		cpc r25,__zero_reg__
 418 0300 00F0      		brlo .L83
 419 0302 1BBA      		out 59-32,__zero_reg__
 420 0304 0895      		ret
 421               	.L83:
 422 0306 8FEF      		ldi r24,lo8(-1)
 423 0308 8BBB      		out 59-32,r24
 424 030a 0895      		ret
 425               		.size	show_adc, .-show_adc
 426               	.global	__vector_10
 427               		.type	__vector_10, @function
 428               	__vector_10:
 429 030c 1F92      		push __zero_reg__
 430 030e 0F92      		push r0
 431 0310 0FB6      		in r0,__SREG__
 432 0312 0F92      		push r0
 433 0314 0BB6      		in r0,91-32
 434 0316 0F92      		push r0
 435 0318 1124      		clr __zero_reg__
 436 031a 8F93      		push r24
 437 031c 9F93      		push r25
 438 031e EF93      		push r30
 439 0320 FF93      		push r31
 440               	/* prologue: Signal */
 441               	/* frame size = 0 */
 442 0322 8091 0000 		lds r24,state
 443 0326 9091 0000 		lds r25,(state)+1
 444 032a 0197      		sbiw r24,1
 445 032c 01F0      		breq .L88
 446 032e 80E1      		ldi r24,lo8(16)
 447 0330 88BB      		out 56-32,r24
 448 0332 81E0      		ldi r24,lo8(1)
 449 0334 90E0      		ldi r25,hi8(1)
 450 0336 9093 0000 		sts (state)+1,r25
 451 033a 8093 0000 		sts state,r24
 452               	.L86:
 453 033e E091 0000 		lds r30,mel_idx
 454 0342 F091 0000 		lds r31,(mel_idx)+1
 455 0346 E050      		subi r30,lo8(-(melody))
 456 0348 F040      		sbci r31,hi8(-(melody))
GAS LISTING C:\Users\82104\AppData\Local\Temp/ccHwZYd2.s 			page 9


 457 034a 8081      		ld r24,Z
 458 034c 84BD      		out 68-32,r24
 459               	/* epilogue start */
 460 034e FF91      		pop r31
 461 0350 EF91      		pop r30
 462 0352 9F91      		pop r25
 463 0354 8F91      		pop r24
 464 0356 0F90      		pop r0
 465 0358 0BBE      		out 91-32,r0
 466 035a 0F90      		pop r0
 467 035c 0FBE      		out __SREG__,r0
 468 035e 0F90      		pop r0
 469 0360 1F90      		pop __zero_reg__
 470 0362 1895      		reti
 471               	.L88:
 472 0364 18BA      		out 56-32,__zero_reg__
 473 0366 1092 0000 		sts (state)+1,__zero_reg__
 474 036a 1092 0000 		sts state,__zero_reg__
 475 036e 00C0      		rjmp .L86
 476               		.size	__vector_10, .-__vector_10
 477               	.global	calculate
 478               		.type	calculate, @function
 479               	calculate:
 480 0370 EF92      		push r14
 481 0372 FF92      		push r15
 482 0374 0F93      		push r16
 483 0376 1F93      		push r17
 484               	/* prologue: function */
 485               	/* frame size = 0 */
 486 0378 9C01      		movw r18,r24
 487 037a 97FD      		sbrc r25,7
 488 037c 00C0      		rjmp .L90
 489 037e 8BE0      		ldi r24,lo8(11)
 490 0380 8093 0000 		sts num+3,r24
 491 0384 A901      		movw r20,r18
 492               	.L91:
 493 0386 9A01      		movw r18,r20
 494 0388 2070      		andi r18,lo8(32512)
 495 038a 3F77      		andi r19,hi8(32512)
 496 038c 3093 0000 		sts value_int,r19
 497 0390 4093 0000 		sts value_deci,r20
 498 0394 832F      		mov r24,r19
 499 0396 6AE0      		ldi r22,lo8(10)
 500 0398 0E94 0000 		call __udivmodqi4
 501 039c 0E94 0000 		call __udivmodqi4
 502 03a0 E92F      		mov r30,r25
 503 03a2 9093 0000 		sts num+2,r25
 504 03a6 832F      		mov r24,r19
 505 03a8 0E94 0000 		call __udivmodqi4
 506 03ac 9093 0000 		sts num+1,r25
 507 03b0 47FD      		sbrc r20,7
 508 03b2 00C0      		rjmp .L92
 509 03b4 80E0      		ldi r24,lo8(0)
 510 03b6 0F2E      		mov __tmp_reg__,r31
 511 03b8 FAE9      		ldi r31,lo8(0xc099999a)
 512 03ba EF2E      		mov r14,r31
 513 03bc F9E9      		ldi r31,hi8(0xc099999a)
GAS LISTING C:\Users\82104\AppData\Local\Temp/ccHwZYd2.s 			page 10


 514 03be FF2E      		mov r15,r31
 515 03c0 F9E9      		ldi r31,hlo8(0xc099999a)
 516 03c2 0F2F      		mov r16,r31
 517 03c4 F0EC      		ldi r31,hhi8(0xc099999a)
 518 03c6 1F2F      		mov r17,r31
 519 03c8 F02D      		mov r31,__tmp_reg__
 520               	.L93:
 521 03ca 8093 0000 		sts num,r24
 522 03ce 692F      		mov r22,r25
 523 03d0 70E0      		ldi r23,lo8(0)
 524 03d2 6051      		subi r22,lo8(-(-528))
 525 03d4 7240      		sbci r23,hi8(-(-528))
 526 03d6 2AE0      		ldi r18,lo8(10)
 527 03d8 E29F      		mul r30,r18
 528 03da 9001      		movw r18,r0
 529 03dc 1124      		clr r1
 530 03de 620F      		add r22,r18
 531 03e0 731F      		adc r23,r19
 532 03e2 8827      		clr r24
 533 03e4 77FD      		sbrc r23,7
 534 03e6 8095      		com r24
 535 03e8 982F      		mov r25,r24
 536 03ea 0E94 0000 		call __floatsisf
 537 03ee 9B01      		movw r18,r22
 538 03f0 AC01      		movw r20,r24
 539 03f2 C801      		movw r24,r16
 540 03f4 B701      		movw r22,r14
 541 03f6 0E94 0000 		call __addsf3
 542               	/* epilogue start */
 543 03fa 1F91      		pop r17
 544 03fc 0F91      		pop r16
 545 03fe FF90      		pop r15
 546 0400 EF90      		pop r14
 547 0402 0895      		ret
 548               	.L90:
 549 0404 8AE0      		ldi r24,lo8(10)
 550 0406 8093 0000 		sts num+3,r24
 551 040a A901      		movw r20,r18
 552 040c 4095      		com r20
 553 040e 5095      		com r21
 554 0410 4150      		subi r20,lo8(-(-1))
 555 0412 5040      		sbci r21,hi8(-(-1))
 556 0414 00C0      		rjmp .L91
 557               	.L92:
 558 0416 85E0      		ldi r24,lo8(5)
 559 0418 0F2E      		mov __tmp_reg__,r31
 560 041a FAE9      		ldi r31,lo8(0xc089999a)
 561 041c EF2E      		mov r14,r31
 562 041e F9E9      		ldi r31,hi8(0xc089999a)
 563 0420 FF2E      		mov r15,r31
 564 0422 F9E8      		ldi r31,hlo8(0xc089999a)
 565 0424 0F2F      		mov r16,r31
 566 0426 F0EC      		ldi r31,hhi8(0xc089999a)
 567 0428 1F2F      		mov r17,r31
 568 042a F02D      		mov r31,__tmp_reg__
 569 042c 00C0      		rjmp .L93
 570               		.size	calculate, .-calculate
GAS LISTING C:\Users\82104\AppData\Local\Temp/ccHwZYd2.s 			page 11


 571               	.global	FireEmergence
 572               		.type	FireEmergence, @function
 573               	FireEmergence:
 574 042e AF92      		push r10
 575 0430 BF92      		push r11
 576 0432 CF92      		push r12
 577 0434 DF92      		push r13
 578 0436 EF92      		push r14
 579 0438 FF92      		push r15
 580 043a 0F93      		push r16
 581 043c 1F93      		push r17
 582 043e DF93      		push r29
 583 0440 CF93      		push r28
 584 0442 0F92      		push __tmp_reg__
 585 0444 CDB7      		in r28,__SP_L__
 586 0446 DEB7      		in r29,__SP_H__
 587               	/* prologue: function */
 588               	/* frame size = 1 */
 589 0448 8FEF      		ldi r24,lo8(-1)
 590 044a 8ABB      		out 58-32,r24
 591 044c 87BB      		out 55-32,r24
 592 044e 83E0      		ldi r24,lo8(3)
 593 0450 85BD      		out 69-32,r24
 594 0452 8FEC      		ldi r24,lo8(-49)
 595 0454 82B9      		out 34-32,r24
 596 0456 8AE0      		ldi r24,lo8(10)
 597 0458 8ABF      		out 90-32,r24
 598 045a 80E3      		ldi r24,lo8(48)
 599 045c 89BF      		out 89-32,r24
 600 045e E091 0000 		lds r30,mel_idx
 601 0462 F091 0000 		lds r31,(mel_idx)+1
 602 0466 E050      		subi r30,lo8(-(melody))
 603 0468 F040      		sbci r31,hi8(-(melody))
 604 046a 8081      		ld r24,Z
 605 046c 84BD      		out 68-32,r24
 606               	/* #APP */
 607               	 ;  323 "lab2.c" 1
 608 046e 7894      		sei
 609               	 ;  0 "" 2
 610               	/* #NOAPP */
 611 0470 5E01      		movw r10,r28
 612 0472 0894      		sec
 613 0474 A11C      		adc r10,__zero_reg__
 614 0476 B11C      		adc r11,__zero_reg__
 615 0478 E0E4      		ldi r30,lo8(64)
 616 047a DE2E      		mov r13,r30
 617 047c 70E9      		ldi r23,lo8(400)
 618 047e E72E      		mov r14,r23
 619 0480 71E0      		ldi r23,hi8(400)
 620 0482 F72E      		mov r15,r23
 621 0484 CC24      		clr r12
 622 0486 C394      		inc r12
 623               	.L100:
 624 0488 8091 0000 		lds r24,checkTemperflag
 625 048c 9091 0000 		lds r25,(checkTemperflag)+1
 626 0490 6FEF      		ldi r22,lo8(-1)
 627 0492 42E8      		ldi r20,lo8(-126)
GAS LISTING C:\Users\82104\AppData\Local\Temp/ccHwZYd2.s 			page 12


 628 0494 20E0      		ldi r18,lo8(0)
 629 0496 30E0      		ldi r19,hi8(0)
 630 0498 8501      		movw r16,r10
 631 049a 0E94 0000 		call OSFlagPend
 632 049e 40E0      		ldi r20,lo8(0)
 633               	.L98:
 634 04a0 8091 0000 		lds r24,signal
 635 04a4 9091 0000 		lds r25,(signal)+1
 636 04a8 0197      		sbiw r24,1
 637 04aa 01F4      		brne .L96
 638 04ac 8BB3      		in r24,59-32
 639 04ae 8095      		com r24
 640 04b0 8BBB      		out 59-32,r24
 641 04b2 D7BE      		out 87-32,r13
 642 04b4 24EF      		ldi r18,lo8(500)
 643 04b6 31E0      		ldi r19,hi8(500)
 644               	.L97:
 645 04b8 C701      		movw r24,r14
 646               	/* #APP */
 647               	 ;  105 "c:/winavr-20100110/lib/gcc/../../avr/include/util/delay_basic.h" 1
 648 04ba 0197      		1: sbiw r24,1
 649 04bc 01F4      		brne 1b
 650               	 ;  0 "" 2
 651               	/* #NOAPP */
 652 04be 2150      		subi r18,lo8(-(-1))
 653 04c0 3040      		sbci r19,hi8(-(-1))
 654 04c2 01F4      		brne .L97
 655 04c4 8091 0000 		lds r24,mel_idx
 656 04c8 9091 0000 		lds r25,(mel_idx)+1
 657 04cc 0196      		adiw r24,1
 658 04ce 62E0      		ldi r22,lo8(2)
 659 04d0 70E0      		ldi r23,hi8(2)
 660 04d2 0E94 0000 		call __divmodhi4
 661 04d6 9093 0000 		sts (mel_idx)+1,r25
 662 04da 8093 0000 		sts mel_idx,r24
 663 04de 4F5F      		subi r20,lo8(-(1))
 664 04e0 483C      		cpi r20,lo8(-56)
 665 04e2 01F4      		brne .L98
 666               	.L99:
 667 04e4 81E0      		ldi r24,lo8(1)
 668 04e6 90E0      		ldi r25,hi8(1)
 669 04e8 0E94 0000 		call OSTimeDly
 670 04ec 00C0      		rjmp .L100
 671               	.L96:
 672 04ee C7BE      		out 87-32,r12
 673 04f0 1BBA      		out 59-32,__zero_reg__
 674 04f2 00C0      		rjmp .L99
 675               		.size	FireEmergence, .-FireEmergence
 676               	.global	LightOFF
 677               		.type	LightOFF, @function
 678               	LightOFF:
 679 04f4 EF92      		push r14
 680 04f6 FF92      		push r15
 681 04f8 0F93      		push r16
 682 04fa 1F93      		push r17
 683 04fc DF93      		push r29
 684 04fe CF93      		push r28
GAS LISTING C:\Users\82104\AppData\Local\Temp/ccHwZYd2.s 			page 13


 685 0500 0F92      		push __tmp_reg__
 686 0502 CDB7      		in r28,__SP_L__
 687 0504 DEB7      		in r29,__SP_H__
 688               	/* prologue: function */
 689               	/* frame size = 1 */
 690 0506 7E01      		movw r14,r28
 691 0508 0894      		sec
 692 050a E11C      		adc r14,__zero_reg__
 693 050c F11C      		adc r15,__zero_reg__
 694               	.L105:
 695 050e 8091 0000 		lds r24,checkcdsflag
 696 0512 9091 0000 		lds r25,(checkcdsflag)+1
 697 0516 62E0      		ldi r22,lo8(2)
 698 0518 42E8      		ldi r20,lo8(-126)
 699 051a 20E0      		ldi r18,lo8(0)
 700 051c 30E0      		ldi r19,hi8(0)
 701 051e 8701      		movw r16,r14
 702 0520 0E94 0000 		call OSFlagPend
 703 0524 1BBA      		out 59-32,__zero_reg__
 704 0526 81E0      		ldi r24,lo8(1)
 705 0528 90E0      		ldi r25,hi8(1)
 706 052a 0E94 0000 		call OSTimeDly
 707 052e 00C0      		rjmp .L105
 708               		.size	LightOFF, .-LightOFF
 709               	.global	LightON
 710               		.type	LightON, @function
 711               	LightON:
 712 0530 DF92      		push r13
 713 0532 EF92      		push r14
 714 0534 FF92      		push r15
 715 0536 0F93      		push r16
 716 0538 1F93      		push r17
 717 053a DF93      		push r29
 718 053c CF93      		push r28
 719 053e 0F92      		push __tmp_reg__
 720 0540 CDB7      		in r28,__SP_L__
 721 0542 DEB7      		in r29,__SP_H__
 722               	/* prologue: function */
 723               	/* frame size = 1 */
 724 0544 7E01      		movw r14,r28
 725 0546 0894      		sec
 726 0548 E11C      		adc r14,__zero_reg__
 727 054a F11C      		adc r15,__zero_reg__
 728 054c DD24      		clr r13
 729 054e DA94      		dec r13
 730               	.L108:
 731 0550 8091 0000 		lds r24,checkcdsflag
 732 0554 9091 0000 		lds r25,(checkcdsflag)+1
 733 0558 61E0      		ldi r22,lo8(1)
 734 055a 42E8      		ldi r20,lo8(-126)
 735 055c 20E0      		ldi r18,lo8(0)
 736 055e 30E0      		ldi r19,hi8(0)
 737 0560 8701      		movw r16,r14
 738 0562 0E94 0000 		call OSFlagPend
 739 0566 DBBA      		out 59-32,r13
 740 0568 81E0      		ldi r24,lo8(1)
 741 056a 90E0      		ldi r25,hi8(1)
GAS LISTING C:\Users\82104\AppData\Local\Temp/ccHwZYd2.s 			page 14


 742 056c 0E94 0000 		call OSTimeDly
 743 0570 00C0      		rjmp .L108
 744               		.size	LightON, .-LightON
 745               	.global	__vector_6
 746               		.type	__vector_6, @function
 747               	__vector_6:
 748 0572 1F92      		push __zero_reg__
 749 0574 0F92      		push r0
 750 0576 0FB6      		in r0,__SREG__
 751 0578 0F92      		push r0
 752 057a 0BB6      		in r0,91-32
 753 057c 0F92      		push r0
 754 057e 1124      		clr __zero_reg__
 755 0580 2F93      		push r18
 756 0582 3F93      		push r19
 757 0584 4F93      		push r20
 758 0586 5F93      		push r21
 759 0588 6F93      		push r22
 760 058a 7F93      		push r23
 761 058c 8F93      		push r24
 762 058e 9F93      		push r25
 763 0590 AF93      		push r26
 764 0592 BF93      		push r27
 765 0594 EF93      		push r30
 766 0596 FF93      		push r31
 767               	/* prologue: Signal */
 768               	/* frame size = 0 */
 769 0598 1092 0000 		sts (signal)+1,__zero_reg__
 770 059c 1092 0000 		sts signal,__zero_reg__
 771 05a0 18BA      		out 56-32,__zero_reg__
 772 05a2 1BBA      		out 59-32,__zero_reg__
 773 05a4 1092 0000 		sts (state)+1,__zero_reg__
 774 05a8 1092 0000 		sts state,__zero_reg__
 775 05ac 1092 0000 		sts (index)+1,__zero_reg__
 776 05b0 1092 0000 		sts index,__zero_reg__
 777 05b4 81E0      		ldi r24,lo8(1)
 778 05b6 87BF      		out 87-32,r24
 779 05b8 81E0      		ldi r24,lo8(1)
 780 05ba 90E0      		ldi r25,hi8(1)
 781 05bc 0E94 0000 		call OSTimeDly
 782               	/* epilogue start */
 783 05c0 FF91      		pop r31
 784 05c2 EF91      		pop r30
 785 05c4 BF91      		pop r27
 786 05c6 AF91      		pop r26
 787 05c8 9F91      		pop r25
 788 05ca 8F91      		pop r24
 789 05cc 7F91      		pop r23
 790 05ce 6F91      		pop r22
 791 05d0 5F91      		pop r21
 792 05d2 4F91      		pop r20
 793 05d4 3F91      		pop r19
 794 05d6 2F91      		pop r18
 795 05d8 0F90      		pop r0
 796 05da 0BBE      		out 91-32,r0
 797 05dc 0F90      		pop r0
 798 05de 0FBE      		out __SREG__,r0
GAS LISTING C:\Users\82104\AppData\Local\Temp/ccHwZYd2.s 			page 15


 799 05e0 0F90      		pop r0
 800 05e2 1F90      		pop __zero_reg__
 801 05e4 1895      		reti
 802               		.size	__vector_6, .-__vector_6
 803               	.global	__vector_5
 804               		.type	__vector_5, @function
 805               	__vector_5:
 806 05e6 1F92      		push __zero_reg__
 807 05e8 0F92      		push r0
 808 05ea 0FB6      		in r0,__SREG__
 809 05ec 0F92      		push r0
 810 05ee 0BB6      		in r0,91-32
 811 05f0 0F92      		push r0
 812 05f2 1124      		clr __zero_reg__
 813 05f4 2F93      		push r18
 814 05f6 3F93      		push r19
 815 05f8 4F93      		push r20
 816 05fa 5F93      		push r21
 817 05fc 6F93      		push r22
 818 05fe 7F93      		push r23
 819 0600 8F93      		push r24
 820 0602 9F93      		push r25
 821 0604 AF93      		push r26
 822 0606 BF93      		push r27
 823 0608 EF93      		push r30
 824 060a FF93      		push r31
 825               	/* prologue: Signal */
 826               	/* frame size = 0 */
 827 060c 81E0      		ldi r24,lo8(1)
 828 060e 90E0      		ldi r25,hi8(1)
 829 0610 9093 0000 		sts (signal)+1,r25
 830 0614 8093 0000 		sts signal,r24
 831 0618 1BBA      		out 59-32,__zero_reg__
 832 061a 0E94 0000 		call OSTimeDly
 833               	/* epilogue start */
 834 061e FF91      		pop r31
 835 0620 EF91      		pop r30
 836 0622 BF91      		pop r27
 837 0624 AF91      		pop r26
 838 0626 9F91      		pop r25
 839 0628 8F91      		pop r24
 840 062a 7F91      		pop r23
 841 062c 6F91      		pop r22
 842 062e 5F91      		pop r21
 843 0630 4F91      		pop r20
 844 0632 3F91      		pop r19
 845 0634 2F91      		pop r18
 846 0636 0F90      		pop r0
 847 0638 0BBE      		out 91-32,r0
 848 063a 0F90      		pop r0
 849 063c 0FBE      		out __SREG__,r0
 850 063e 0F90      		pop r0
 851 0640 1F90      		pop __zero_reg__
 852 0642 1895      		reti
 853               		.size	__vector_5, .-__vector_5
 854               	.global	checkTemper
 855               		.type	checkTemper, @function
GAS LISTING C:\Users\82104\AppData\Local\Temp/ccHwZYd2.s 			page 16


 856               	checkTemper:
 857 0644 0F93      		push r16
 858 0646 1F93      		push r17
 859 0648 DF93      		push r29
 860 064a CF93      		push r28
 861 064c 0F92      		push __tmp_reg__
 862 064e CDB7      		in r28,__SP_L__
 863 0650 DEB7      		in r29,__SP_H__
 864               	/* prologue: function */
 865               	/* frame size = 1 */
 866 0652 8FEF      		ldi r24,lo8(-1)
 867 0654 8ABB      		out 58-32,r24
 868 0656 8E01      		movw r16,r28
 869 0658 0F5F      		subi r16,lo8(-(1))
 870 065a 1F4F      		sbci r17,hi8(-(1))
 871 065c 00C0      		rjmp .L117
 872               	.L115:
 873 065e 81E0      		ldi r24,lo8(1)
 874 0660 90E0      		ldi r25,hi8(1)
 875 0662 0E94 0000 		call OSTimeDly
 876               	.L117:
 877 0666 8091 0000 		lds r24,temperindex
 878 066a 9091 0000 		lds r25,(temperindex)+1
 879 066e 97FD      		sbrc r25,7
 880 0670 00C0      		rjmp .L115
 881 0672 8091 0000 		lds r24,signal
 882 0676 9091 0000 		lds r25,(signal)+1
 883 067a 0197      		sbiw r24,1
 884 067c 01F4      		brne .L115
 885 067e 8091 0000 		lds r24,checktemperbox
 886 0682 9091 0000 		lds r25,(checktemperbox)+1
 887 0686 60E0      		ldi r22,lo8(0)
 888 0688 70E0      		ldi r23,hi8(0)
 889 068a A801      		movw r20,r16
 890 068c 0E94 0000 		call OSMboxPend
 891 0690 FC01      		movw r30,r24
 892 0692 0190      		ld __tmp_reg__,Z+
 893 0694 F081      		ld r31,Z
 894 0696 E02D      		mov r30,__tmp_reg__
 895 0698 8FEF      		ldi r24,hi8(-1)
 896 069a EF3F      		cpi r30,lo8(-1)
 897 069c F807      		cpc r31,r24
 898 069e 01F0      		breq .L119
 899 06a0 E050      		subi r30,lo8(-(myMapTbl))
 900 06a2 F040      		sbci r31,hi8(-(myMapTbl))
 901 06a4 8081      		ld r24,Z
 902 06a6 8BBB      		out 59-32,r24
 903 06a8 00C0      		rjmp .L115
 904               	.L119:
 905 06aa 1BBA      		out 59-32,__zero_reg__
 906 06ac 00C0      		rjmp .L115
 907               		.size	checkTemper, .-checkTemper
 908               	.global	DisplayCDS
 909               		.type	DisplayCDS, @function
 910               	DisplayCDS:
 911 06ae DF92      		push r13
 912 06b0 EF92      		push r14
GAS LISTING C:\Users\82104\AppData\Local\Temp/ccHwZYd2.s 			page 17


 913 06b2 FF92      		push r15
 914 06b4 0F93      		push r16
 915 06b6 1F93      		push r17
 916 06b8 DF93      		push r29
 917 06ba CF93      		push r28
 918 06bc CDB7      		in r28,__SP_L__
 919 06be DEB7      		in r29,__SP_H__
 920 06c0 2D97      		sbiw r28,13
 921 06c2 0FB6      		in __tmp_reg__,__SREG__
 922 06c4 F894      		cli
 923 06c6 DEBF      		out __SP_H__,r29
 924 06c8 0FBE      		out __SREG__,__tmp_reg__
 925 06ca CDBF      		out __SP_L__,r28
 926               	/* prologue: function */
 927               	/* frame size = 13 */
 928 06cc 8FEF      		ldi r24,lo8(-1)
 929 06ce 84BB      		out 52-32,r24
 930 06d0 8FE0      		ldi r24,lo8(15)
 931 06d2 8093 6400 		sts 100,r24
 932 06d6 F2E0      		ldi r31,lo8(2)
 933 06d8 EF2E      		mov r14,r31
 934 06da F12C      		mov r15,__zero_reg__
 935 06dc EC0E      		add r14,r28
 936 06de FD1E      		adc r15,r29
 937 06e0 D701      		movw r26,r14
 938 06e2 E0E0      		ldi r30,lo8(C.31.1875)
 939 06e4 F0E0      		ldi r31,hi8(C.31.1875)
 940 06e6 8CE0      		ldi r24,lo8(12)
 941               	.L121:
 942 06e8 0190      		ld r0,Z+
 943 06ea 0D92      		st X+,r0
 944 06ec 8150      		subi r24,lo8(-(-1))
 945 06ee 01F4      		brne .L121
 946 06f0 8E01      		movw r16,r28
 947 06f2 0F5F      		subi r16,lo8(-(1))
 948 06f4 1F4F      		sbci r17,hi8(-(1))
 949 06f6 DD24      		clr r13
 950 06f8 D394      		inc r13
 951               	.L122:
 952 06fa 8091 0000 		lds r24,checkcdsbox
 953 06fe 9091 0000 		lds r25,(checkcdsbox)+1
 954 0702 60E0      		ldi r22,lo8(0)
 955 0704 70E0      		ldi r23,hi8(0)
 956 0706 A801      		movw r20,r16
 957 0708 0E94 0000 		call OSMboxPend
 958 070c FC01      		movw r30,r24
 959 070e 8081      		ld r24,Z
 960 0710 9181      		ldd r25,Z+1
 961 0712 6AE0      		ldi r22,lo8(10)
 962 0714 70E0      		ldi r23,hi8(10)
 963 0716 0E94 0000 		call __divmodhi4
 964 071a FC01      		movw r30,r24
 965 071c 9093 0000 		sts (fnd)+1,r25
 966 0720 8093 0000 		sts fnd,r24
 967 0724 EE0D      		add r30,r14
 968 0726 FF1D      		adc r31,r15
 969 0728 8081      		ld r24,Z
GAS LISTING C:\Users\82104\AppData\Local\Temp/ccHwZYd2.s 			page 18


 970 072a 85BB      		out 53-32,r24
 971 072c D092 6500 		sts 101,r13
 972 0730 00C0      		rjmp .L122
 973               		.size	DisplayCDS, .-DisplayCDS
 974               	.global	manageTask
 975               		.type	manageTask, @function
 976               	manageTask:
 977 0732 EF92      		push r14
 978 0734 FF92      		push r15
 979 0736 0F93      		push r16
 980 0738 1F93      		push r17
 981 073a DF93      		push r29
 982 073c CF93      		push r28
 983 073e 0F92      		push __tmp_reg__
 984 0740 CDB7      		in r28,__SP_L__
 985 0742 DEB7      		in r29,__SP_H__
 986               	/* prologue: function */
 987               	/* frame size = 1 */
 988 0744 8FEF      		ldi r24,lo8(-1)
 989 0746 84BB      		out 52-32,r24
 990 0748 8FE0      		ldi r24,lo8(15)
 991 074a 8093 6400 		sts 100,r24
 992 074e 8FEC      		ldi r24,lo8(-49)
 993 0750 82B9      		out 34-32,r24
 994 0752 8AE0      		ldi r24,lo8(10)
 995 0754 8ABF      		out 90-32,r24
 996 0756 80E3      		ldi r24,lo8(48)
 997 0758 89BF      		out 89-32,r24
 998 075a 8FB7      		in r24,__SREG__
 999 075c 8068      		ori r24,lo8(-128)
 1000 075e 8FBF      		out __SREG__,r24
 1001 0760 8E01      		movw r16,r28
 1002 0762 0F5F      		subi r16,lo8(-(1))
 1003 0764 1F4F      		sbci r17,hi8(-(1))
 1004 0766 EE24      		clr r14
 1005 0768 EA94      		dec r14
 1006 076a FE2C      		mov r15,r14
 1007 076c 00C0      		rjmp .L128
 1008               	.L127:
 1009 076e 81E0      		ldi r24,lo8(1)
 1010 0770 90E0      		ldi r25,hi8(1)
 1011 0772 0E94 0000 		call OSTimeDly
 1012               	.L128:
 1013 0776 8091 0000 		lds r24,signal
 1014 077a 9091 0000 		lds r25,(signal)+1
 1015 077e 0197      		sbiw r24,1
 1016 0780 01F0      		breq .L130
 1017               	.L126:
 1018 0782 8091 0000 		lds r24,signal
 1019 0786 9091 0000 		lds r25,(signal)+1
 1020 078a 892B      		or r24,r25
 1021 078c 01F4      		brne .L127
 1022 078e F092 0000 		sts (temperindex)+1,r15
 1023 0792 E092 0000 		sts temperindex,r14
 1024 0796 8091 0000 		lds r24,manageflag
 1025 079a 9091 0000 		lds r25,(manageflag)+1
 1026 079e 62E0      		ldi r22,lo8(2)
GAS LISTING C:\Users\82104\AppData\Local\Temp/ccHwZYd2.s 			page 19


 1027 07a0 41E0      		ldi r20,lo8(1)
 1028 07a2 9801      		movw r18,r16
 1029 07a4 0E94 0000 		call OSFlagPost
 1030 07a8 00C0      		rjmp .L127
 1031               	.L130:
 1032 07aa 8091 0000 		lds r24,manageflag
 1033 07ae 9091 0000 		lds r25,(manageflag)+1
 1034 07b2 61E0      		ldi r22,lo8(1)
 1035 07b4 41E0      		ldi r20,lo8(1)
 1036 07b6 9801      		movw r18,r16
 1037 07b8 0E94 0000 		call OSFlagPost
 1038 07bc 00C0      		rjmp .L126
 1039               		.size	manageTask, .-manageTask
 1040               	.global	TemperatureTask
 1041               		.type	TemperatureTask, @function
 1042               	TemperatureTask:
 1043 07be 6F92      		push r6
 1044 07c0 7F92      		push r7
 1045 07c2 8F92      		push r8
 1046 07c4 9F92      		push r9
 1047 07c6 AF92      		push r10
 1048 07c8 BF92      		push r11
 1049 07ca CF92      		push r12
 1050 07cc DF92      		push r13
 1051 07ce EF92      		push r14
 1052 07d0 FF92      		push r15
 1053 07d2 0F93      		push r16
 1054 07d4 1F93      		push r17
 1055 07d6 DF93      		push r29
 1056 07d8 CF93      		push r28
 1057 07da 0F92      		push __tmp_reg__
 1058 07dc CDB7      		in r28,__SP_L__
 1059 07de DEB7      		in r29,__SP_H__
 1060               	/* prologue: function */
 1061               	/* frame size = 1 */
 1062 07e0 8FEF      		ldi r24,lo8(-1)
 1063 07e2 8ABB      		out 58-32,r24
 1064 07e4 0E94 0000 		call InitI2C
 1065 07e8 81E0      		ldi r24,lo8(1)
 1066 07ea 60E0      		ldi r22,lo8(0)
 1067 07ec 0E94 0000 		call write_twi_1byte_nopreset
 1068 07f0 80E0      		ldi r24,lo8(0)
 1069 07f2 0E94 0000 		call write_twi_0byte_nopreset
 1070 07f6 3E01      		movw r6,r28
 1071 07f8 0894      		sec
 1072 07fa 611C      		adc r6,__zero_reg__
 1073 07fc 711C      		adc r7,__zero_reg__
 1074               	.L142:
 1075 07fe 8091 0000 		lds r24,manageflag
 1076 0802 9091 0000 		lds r25,(manageflag)+1
 1077 0806 61E0      		ldi r22,lo8(1)
 1078 0808 42E8      		ldi r20,lo8(-126)
 1079 080a 20E0      		ldi r18,lo8(0)
 1080 080c 30E0      		ldi r19,hi8(0)
 1081 080e 8301      		movw r16,r6
 1082 0810 0E94 0000 		call OSFlagPend
 1083 0814 0E94 0000 		call read_twi_2byte_preset
GAS LISTING C:\Users\82104\AppData\Local\Temp/ccHwZYd2.s 			page 20


 1084 0818 4C01      		movw r8,r24
 1085 081a 0E94 0000 		call DisplayTemp
 1086 081e 8091 0000 		lds r24,temperindex
 1087 0822 9091 0000 		lds r25,(temperindex)+1
 1088 0826 8F5F      		subi r24,lo8(-1)
 1089 0828 9F4F      		sbci r25,hi8(-1)
 1090 082a 01F4      		brne .+2
 1091 082c 00C0      		rjmp .L143
 1092 082e C401      		movw r24,r8
 1093 0830 0E94 0000 		call calculate
 1094 0834 5B01      		movw r10,r22
 1095 0836 6C01      		movw r12,r24
 1096 0838 8091 0000 		lds r24,temperature_value
 1097 083c 9091 0000 		lds r25,(temperature_value)+1
 1098 0840 0E94 0000 		call calculate
 1099 0844 7B01      		movw r14,r22
 1100 0846 8C01      		movw r16,r24
 1101 0848 C601      		movw r24,r12
 1102 084a B501      		movw r22,r10
 1103 084c A801      		movw r20,r16
 1104 084e 9701      		movw r18,r14
 1105 0850 0E94 0000 		call __gtsf2
 1106 0854 1816      		cp __zero_reg__,r24
 1107 0856 04F4      		brge .L134
 1108 0858 8091 0000 		lds r24,temperindex
 1109 085c 9091 0000 		lds r25,(temperindex)+1
 1110 0860 0497      		sbiw r24,4
 1111 0862 01F0      		breq .L144
 1112 0864 8091 0000 		lds r24,checktemperbox
 1113 0868 9091 0000 		lds r25,(checktemperbox)+1
 1114 086c 60E0      		ldi r22,lo8(temperindex)
 1115 086e 70E0      		ldi r23,hi8(temperindex)
 1116 0870 0E94 0000 		call OSMboxPost
 1117 0874 8091 0000 		lds r24,temperindex
 1118 0878 9091 0000 		lds r25,(temperindex)+1
 1119 087c 0196      		adiw r24,1
 1120 087e 9093 0000 		sts (temperindex)+1,r25
 1121 0882 8093 0000 		sts temperindex,r24
 1122               	.L134:
 1123 0886 C601      		movw r24,r12
 1124 0888 B501      		movw r22,r10
 1125 088a A801      		movw r20,r16
 1126 088c 9701      		movw r18,r14
 1127 088e 0E94 0000 		call __ltsf2
 1128 0892 8823      		tst r24
 1129 0894 04F4      		brge .L137
 1130 0896 8091 0000 		lds r24,temperindex
 1131 089a 9091 0000 		lds r25,(temperindex)+1
 1132 089e 97FD      		sbrc r25,7
 1133 08a0 00C0      		rjmp .L137
 1134 08a2 0197      		sbiw r24,1
 1135 08a4 9093 0000 		sts (temperindex)+1,r25
 1136 08a8 8093 0000 		sts temperindex,r24
 1137 08ac 8091 0000 		lds r24,checktemperbox
 1138 08b0 9091 0000 		lds r25,(checktemperbox)+1
 1139 08b4 60E0      		ldi r22,lo8(temperindex)
 1140 08b6 70E0      		ldi r23,hi8(temperindex)
GAS LISTING C:\Users\82104\AppData\Local\Temp/ccHwZYd2.s 			page 21


 1141 08b8 0E94 0000 		call OSMboxPost
 1142               	.L137:
 1143 08bc 9092 0000 		sts (temperature_value)+1,r9
 1144 08c0 8092 0000 		sts temperature_value,r8
 1145 08c4 00C0      		rjmp .L142
 1146               	.L143:
 1147 08c6 9092 0000 		sts (temperature_value)+1,r9
 1148 08ca 8092 0000 		sts temperature_value,r8
 1149 08ce 1092 0000 		sts (temperindex)+1,__zero_reg__
 1150 08d2 1092 0000 		sts temperindex,__zero_reg__
 1151 08d6 00C0      		rjmp .L142
 1152               	.L144:
 1153 08d8 8091 0000 		lds r24,checkTemperflag
 1154 08dc 9091 0000 		lds r25,(checkTemperflag)+1
 1155 08e0 6FEF      		ldi r22,lo8(-1)
 1156 08e2 41E0      		ldi r20,lo8(1)
 1157 08e4 9301      		movw r18,r6
 1158 08e6 0E94 0000 		call OSFlagPost
 1159 08ea 1092 0000 		sts (temperindex)+1,__zero_reg__
 1160 08ee 1092 0000 		sts temperindex,__zero_reg__
 1161 08f2 00C0      		rjmp .L134
 1162               		.size	TemperatureTask, .-TemperatureTask
 1163               	.global	CntCDS
 1164               		.type	CntCDS, @function
 1165               	CntCDS:
 1166 08f4 EF92      		push r14
 1167 08f6 FF92      		push r15
 1168 08f8 0F93      		push r16
 1169 08fa 1F93      		push r17
 1170 08fc DF93      		push r29
 1171 08fe CF93      		push r28
 1172 0900 0F92      		push __tmp_reg__
 1173 0902 CDB7      		in r28,__SP_L__
 1174 0904 DEB7      		in r29,__SP_H__
 1175               	/* prologue: function */
 1176               	/* frame size = 1 */
 1177 0906 8FEF      		ldi r24,lo8(-1)
 1178 0908 8ABB      		out 58-32,r24
 1179 090a 00E0      		ldi r16,lo8(0)
 1180 090c 10E0      		ldi r17,hi8(0)
 1181 090e 7E01      		movw r14,r28
 1182 0910 0894      		sec
 1183 0912 E11C      		adc r14,__zero_reg__
 1184 0914 F11C      		adc r15,__zero_reg__
 1185               	.L154:
 1186 0916 0530      		cpi r16,5
 1187 0918 1105      		cpc r17,__zero_reg__
 1188 091a 04F0      		brlt .L147
 1189               	.L157:
 1190 091c E0E0      		ldi r30,lo8(cdss)
 1191 091e F0E0      		ldi r31,hi8(cdss)
 1192 0920 20E0      		ldi r18,lo8(0)
 1193 0922 30E0      		ldi r19,hi8(0)
 1194               	.L149:
 1195 0924 8081      		ld r24,Z
 1196 0926 9181      		ldd r25,Z+1
 1197 0928 0197      		sbiw r24,1
GAS LISTING C:\Users\82104\AppData\Local\Temp/ccHwZYd2.s 			page 22


 1198 092a 01F0      		breq .L155
 1199               	.L148:
 1200 092c 3296      		adiw r30,2
 1201 092e 80E0      		ldi r24,hi8(cdss+10)
 1202 0930 E030      		cpi r30,lo8(cdss+10)
 1203 0932 F807      		cpc r31,r24
 1204 0934 01F4      		brne .L149
 1205 0936 2530      		cpi r18,5
 1206 0938 3105      		cpc r19,__zero_reg__
 1207 093a 01F0      		breq .L156
 1208 093c 232B      		or r18,r19
 1209 093e 01F4      		brne .L151
 1210 0940 8091 0000 		lds r24,checkcdsflag
 1211 0944 9091 0000 		lds r25,(checkcdsflag)+1
 1212 0948 62E0      		ldi r22,lo8(2)
 1213 094a 41E0      		ldi r20,lo8(1)
 1214 094c 9701      		movw r18,r14
 1215 094e 0E94 0000 		call OSFlagPost
 1216               	.L151:
 1217 0952 81E0      		ldi r24,lo8(1)
 1218 0954 90E0      		ldi r25,hi8(1)
 1219 0956 0E94 0000 		call OSTimeDly
 1220 095a 00E0      		ldi r16,lo8(0)
 1221 095c 10E0      		ldi r17,hi8(0)
 1222 095e 0530      		cpi r16,5
 1223 0960 1105      		cpc r17,__zero_reg__
 1224 0962 04F4      		brge .L157
 1225               	.L147:
 1226 0964 8091 0000 		lds r24,checkcdsQ
 1227 0968 9091 0000 		lds r25,(checkcdsQ)+1
 1228 096c 60E0      		ldi r22,lo8(0)
 1229 096e 70E0      		ldi r23,hi8(0)
 1230 0970 A701      		movw r20,r14
 1231 0972 0E94 0000 		call OSQPend
 1232 0976 FC01      		movw r30,r24
 1233 0978 D801      		movw r26,r16
 1234 097a AA0F      		lsl r26
 1235 097c BB1F      		rol r27
 1236 097e A050      		subi r26,lo8(-(cdss))
 1237 0980 B040      		sbci r27,hi8(-(cdss))
 1238 0982 8081      		ld r24,Z
 1239 0984 9181      		ldd r25,Z+1
 1240 0986 8D93      		st X+,r24
 1241 0988 9C93      		st X,r25
 1242 098a 0F5F      		subi r16,lo8(-(1))
 1243 098c 1F4F      		sbci r17,hi8(-(1))
 1244 098e 00C0      		rjmp .L154
 1245               	.L155:
 1246 0990 2F5F      		subi r18,lo8(-(1))
 1247 0992 3F4F      		sbci r19,hi8(-(1))
 1248 0994 00C0      		rjmp .L148
 1249               	.L156:
 1250 0996 8091 0000 		lds r24,checkcdsflag
 1251 099a 9091 0000 		lds r25,(checkcdsflag)+1
 1252 099e 61E0      		ldi r22,lo8(1)
 1253 09a0 41E0      		ldi r20,lo8(1)
 1254 09a2 9701      		movw r18,r14
GAS LISTING C:\Users\82104\AppData\Local\Temp/ccHwZYd2.s 			page 23


 1255 09a4 0E94 0000 		call OSFlagPost
 1256 09a8 00C0      		rjmp .L151
 1257               		.size	CntCDS, .-CntCDS
 1258               	.global	cdsTask
 1259               		.type	cdsTask, @function
 1260               	cdsTask:
 1261 09aa AF92      		push r10
 1262 09ac BF92      		push r11
 1263 09ae CF92      		push r12
 1264 09b0 DF92      		push r13
 1265 09b2 EF92      		push r14
 1266 09b4 FF92      		push r15
 1267 09b6 0F93      		push r16
 1268 09b8 1F93      		push r17
 1269 09ba DF93      		push r29
 1270 09bc CF93      		push r28
 1271 09be 00D0      		rcall .
 1272 09c0 0F92      		push __tmp_reg__
 1273 09c2 CDB7      		in r28,__SP_L__
 1274 09c4 DEB7      		in r29,__SP_H__
 1275               	/* prologue: function */
 1276               	/* frame size = 3 */
 1277 09c6 8FEF      		ldi r24,lo8(-1)
 1278 09c8 8ABB      		out 58-32,r24
 1279 09ca 84BB      		out 52-32,r24
 1280 09cc 8FE0      		ldi r24,lo8(15)
 1281 09ce 8093 6400 		sts 100,r24
 1282 09d2 17B8      		out 39-32,__zero_reg__
 1283 09d4 87E8      		ldi r24,lo8(-121)
 1284 09d6 86B9      		out 38-32,r24
 1285 09d8 6E01      		movw r12,r28
 1286 09da 0894      		sec
 1287 09dc C11C      		adc r12,__zero_reg__
 1288 09de D11C      		adc r13,__zero_reg__
 1289 09e0 22E0      		ldi r18,lo8(2)
 1290 09e2 E22E      		mov r14,r18
 1291 09e4 F12C      		mov r15,__zero_reg__
 1292 09e6 EC0E      		add r14,r28
 1293 09e8 FD1E      		adc r15,r29
 1294 09ea 91E0      		ldi r25,lo8(1)
 1295 09ec A92E      		mov r10,r25
 1296 09ee B12C      		mov r11,__zero_reg__
 1297 09f0 00C0      		rjmp .L163
 1298               	.L165:
 1299 09f2 8091 0000 		lds r24,cdsindex
 1300 09f6 9091 0000 		lds r25,(cdsindex)+1
 1301 09fa 8530      		cpi r24,5
 1302 09fc 9105      		cpc r25,__zero_reg__
 1303 09fe 04F4      		brge .L160
 1304 0a00 0196      		adiw r24,1
 1305 0a02 9093 0000 		sts (cdsindex)+1,r25
 1306 0a06 8093 0000 		sts cdsindex,r24
 1307               	.L160:
 1308 0a0a BB82      		std Y+3,r11
 1309 0a0c AA82      		std Y+2,r10
 1310               	.L161:
 1311 0a0e 8091 0000 		lds r24,checkcdsQ
GAS LISTING C:\Users\82104\AppData\Local\Temp/ccHwZYd2.s 			page 24


 1312 0a12 9091 0000 		lds r25,(checkcdsQ)+1
 1313 0a16 B701      		movw r22,r14
 1314 0a18 0E94 0000 		call OSQPost
 1315 0a1c 8091 0000 		lds r24,checkcdsbox
 1316 0a20 9091 0000 		lds r25,(checkcdsbox)+1
 1317 0a24 60E0      		ldi r22,lo8(cdsindex)
 1318 0a26 70E0      		ldi r23,hi8(cdsindex)
 1319 0a28 0E94 0000 		call OSMboxPost
 1320 0a2c 82E3      		ldi r24,lo8(50)
 1321 0a2e 90E0      		ldi r25,hi8(50)
 1322 0a30 0E94 0000 		call OSTimeDly
 1323               	.L163:
 1324 0a34 8091 0000 		lds r24,manageflag
 1325 0a38 9091 0000 		lds r25,(manageflag)+1
 1326 0a3c 62E0      		ldi r22,lo8(2)
 1327 0a3e 42E8      		ldi r20,lo8(-126)
 1328 0a40 20E0      		ldi r18,lo8(0)
 1329 0a42 30E0      		ldi r19,hi8(0)
 1330 0a44 8601      		movw r16,r12
 1331 0a46 0E94 0000 		call OSFlagPend
 1332 0a4a 8091 0000 		lds r24,index
 1333 0a4e 9091 0000 		lds r25,(index)+1
 1334 0a52 0196      		adiw r24,1
 1335 0a54 9093 0000 		sts (index)+1,r25
 1336 0a58 8093 0000 		sts index,r24
 1337 0a5c 0E94 0000 		call read_adc
 1338 0a60 883C      		cpi r24,lo8(-56)
 1339 0a62 00F0      		brlo .L165
 1340 0a64 8091 0000 		lds r24,cdsindex
 1341 0a68 9091 0000 		lds r25,(cdsindex)+1
 1342 0a6c 1816      		cp __zero_reg__,r24
 1343 0a6e 1906      		cpc __zero_reg__,r25
 1344 0a70 04F4      		brge .L162
 1345 0a72 0197      		sbiw r24,1
 1346 0a74 9093 0000 		sts (cdsindex)+1,r25
 1347 0a78 8093 0000 		sts cdsindex,r24
 1348               	.L162:
 1349 0a7c 1B82      		std Y+3,__zero_reg__
 1350 0a7e 1A82      		std Y+2,__zero_reg__
 1351 0a80 00C0      		rjmp .L161
 1352               		.size	cdsTask, .-cdsTask
 1353               	.global	main
 1354               		.type	main, @function
 1355               	main:
 1356 0a82 0F93      		push r16
 1357 0a84 1F93      		push r17
 1358 0a86 DF93      		push r29
 1359 0a88 CF93      		push r28
 1360 0a8a 0F92      		push __tmp_reg__
 1361 0a8c CDB7      		in r28,__SP_L__
 1362 0a8e DEB7      		in r29,__SP_H__
 1363               	/* prologue: function */
 1364               	/* frame size = 1 */
 1365 0a90 0E94 0000 		call OSInit
 1366               	/* #APP */
 1367               	 ;  83 "lab2.c" 1
 1368 0a94 F894      		cli
GAS LISTING C:\Users\82104\AppData\Local\Temp/ccHwZYd2.s 			page 25


 1369               	 ;  0 "" 2
 1370               	/* #NOAPP */
 1371 0a96 87E0      		ldi r24,lo8(7)
 1372 0a98 83BF      		out 83-32,r24
 1373 0a9a 81E0      		ldi r24,lo8(1)
 1374 0a9c 87BF      		out 87-32,r24
 1375 0a9e 84E6      		ldi r24,lo8(100)
 1376 0aa0 82BF      		out 82-32,r24
 1377 0aa2 80E0      		ldi r24,lo8(0)
 1378 0aa4 90E0      		ldi r25,hi8(0)
 1379 0aa6 0E94 0000 		call OSMboxCreate
 1380 0aaa 9093 0000 		sts (checktemperbox)+1,r25
 1381 0aae 8093 0000 		sts checktemperbox,r24
 1382 0ab2 80E0      		ldi r24,lo8(checkcds)
 1383 0ab4 90E0      		ldi r25,hi8(checkcds)
 1384 0ab6 65E0      		ldi r22,lo8(5)
 1385 0ab8 70E0      		ldi r23,hi8(5)
 1386 0aba 0E94 0000 		call OSQCreate
 1387 0abe 9093 0000 		sts (checkcdsQ)+1,r25
 1388 0ac2 8093 0000 		sts checkcdsQ,r24
 1389 0ac6 80E0      		ldi r24,lo8(0)
 1390 0ac8 90E0      		ldi r25,hi8(0)
 1391 0aca 0E94 0000 		call OSMboxCreate
 1392 0ace 9093 0000 		sts (checkcdsbox)+1,r25
 1393 0ad2 8093 0000 		sts checkcdsbox,r24
 1394 0ad6 80E0      		ldi r24,lo8(0)
 1395 0ad8 8E01      		movw r16,r28
 1396 0ada 0F5F      		subi r16,lo8(-(1))
 1397 0adc 1F4F      		sbci r17,hi8(-(1))
 1398 0ade B801      		movw r22,r16
 1399 0ae0 0E94 0000 		call OSFlagCreate
 1400 0ae4 9093 0000 		sts (manageflag)+1,r25
 1401 0ae8 8093 0000 		sts manageflag,r24
 1402 0aec 80E0      		ldi r24,lo8(0)
 1403 0aee B801      		movw r22,r16
 1404 0af0 0E94 0000 		call OSFlagCreate
 1405 0af4 9093 0000 		sts (checkTemperflag)+1,r25
 1406 0af8 8093 0000 		sts checkTemperflag,r24
 1407 0afc 80E0      		ldi r24,lo8(0)
 1408 0afe B801      		movw r22,r16
 1409 0b00 0E94 0000 		call OSFlagCreate
 1410 0b04 9093 0000 		sts (checkcdsflag)+1,r25
 1411 0b08 8093 0000 		sts checkcdsflag,r24
 1412 0b0c 80E0      		ldi r24,lo8(0)
 1413 0b0e B801      		movw r22,r16
 1414 0b10 0E94 0000 		call OSFlagCreate
 1415 0b14 9093 0000 		sts (totalcntcheckflag)+1,r25
 1416 0b18 8093 0000 		sts totalcntcheckflag,r24
 1417               	/* #APP */
 1418               	 ;  97 "lab2.c" 1
 1419 0b1c 7894      		sei
 1420               	 ;  0 "" 2
 1421               	/* #NOAPP */
 1422 0b1e 80E0      		ldi r24,lo8(gs(manageTask))
 1423 0b20 90E0      		ldi r25,hi8(gs(manageTask))
 1424 0b22 60E0      		ldi r22,lo8(0)
 1425 0b24 70E0      		ldi r23,hi8(0)
GAS LISTING C:\Users\82104\AppData\Local\Temp/ccHwZYd2.s 			page 26


 1426 0b26 40E0      		ldi r20,lo8(TaskStk+127)
 1427 0b28 50E0      		ldi r21,hi8(TaskStk+127)
 1428 0b2a 20E0      		ldi r18,lo8(0)
 1429 0b2c 0E94 0000 		call OSTaskCreate
 1430 0b30 80E0      		ldi r24,lo8(gs(TemperatureTask))
 1431 0b32 90E0      		ldi r25,hi8(gs(TemperatureTask))
 1432 0b34 60E0      		ldi r22,lo8(0)
 1433 0b36 70E0      		ldi r23,hi8(0)
 1434 0b38 40E0      		ldi r20,lo8(TaskStk+1151)
 1435 0b3a 50E0      		ldi r21,hi8(TaskStk+1151)
 1436 0b3c 28E0      		ldi r18,lo8(8)
 1437 0b3e 0E94 0000 		call OSTaskCreate
 1438 0b42 80E0      		ldi r24,lo8(gs(cdsTask))
 1439 0b44 90E0      		ldi r25,hi8(gs(cdsTask))
 1440 0b46 60E0      		ldi r22,lo8(0)
 1441 0b48 70E0      		ldi r23,hi8(0)
 1442 0b4a 40E0      		ldi r20,lo8(TaskStk+895)
 1443 0b4c 50E0      		ldi r21,hi8(TaskStk+895)
 1444 0b4e 26E0      		ldi r18,lo8(6)
 1445 0b50 0E94 0000 		call OSTaskCreate
 1446 0b54 80E0      		ldi r24,lo8(gs(checkTemper))
 1447 0b56 90E0      		ldi r25,hi8(gs(checkTemper))
 1448 0b58 60E0      		ldi r22,lo8(0)
 1449 0b5a 70E0      		ldi r23,hi8(0)
 1450 0b5c 40E0      		ldi r20,lo8(TaskStk+639)
 1451 0b5e 50E0      		ldi r21,hi8(TaskStk+639)
 1452 0b60 24E0      		ldi r18,lo8(4)
 1453 0b62 0E94 0000 		call OSTaskCreate
 1454 0b66 80E0      		ldi r24,lo8(gs(FireEmergence))
 1455 0b68 90E0      		ldi r25,hi8(gs(FireEmergence))
 1456 0b6a 60E0      		ldi r22,lo8(0)
 1457 0b6c 70E0      		ldi r23,hi8(0)
 1458 0b6e 40E0      		ldi r20,lo8(TaskStk+511)
 1459 0b70 50E0      		ldi r21,hi8(TaskStk+511)
 1460 0b72 23E0      		ldi r18,lo8(3)
 1461 0b74 0E94 0000 		call OSTaskCreate
 1462 0b78 80E0      		ldi r24,lo8(gs(CntCDS))
 1463 0b7a 90E0      		ldi r25,hi8(gs(CntCDS))
 1464 0b7c 60E0      		ldi r22,lo8(0)
 1465 0b7e 70E0      		ldi r23,hi8(0)
 1466 0b80 40E0      		ldi r20,lo8(TaskStk+767)
 1467 0b82 50E0      		ldi r21,hi8(TaskStk+767)
 1468 0b84 25E0      		ldi r18,lo8(5)
 1469 0b86 0E94 0000 		call OSTaskCreate
 1470 0b8a 80E0      		ldi r24,lo8(gs(LightON))
 1471 0b8c 90E0      		ldi r25,hi8(gs(LightON))
 1472 0b8e 60E0      		ldi r22,lo8(0)
 1473 0b90 70E0      		ldi r23,hi8(0)
 1474 0b92 40E0      		ldi r20,lo8(TaskStk+255)
 1475 0b94 50E0      		ldi r21,hi8(TaskStk+255)
 1476 0b96 21E0      		ldi r18,lo8(1)
 1477 0b98 0E94 0000 		call OSTaskCreate
 1478 0b9c 80E0      		ldi r24,lo8(gs(LightOFF))
 1479 0b9e 90E0      		ldi r25,hi8(gs(LightOFF))
 1480 0ba0 60E0      		ldi r22,lo8(0)
 1481 0ba2 70E0      		ldi r23,hi8(0)
 1482 0ba4 40E0      		ldi r20,lo8(TaskStk+383)
GAS LISTING C:\Users\82104\AppData\Local\Temp/ccHwZYd2.s 			page 27


 1483 0ba6 50E0      		ldi r21,hi8(TaskStk+383)
 1484 0ba8 22E0      		ldi r18,lo8(2)
 1485 0baa 0E94 0000 		call OSTaskCreate
 1486 0bae 80E0      		ldi r24,lo8(gs(DisplayCDS))
 1487 0bb0 90E0      		ldi r25,hi8(gs(DisplayCDS))
 1488 0bb2 60E0      		ldi r22,lo8(0)
 1489 0bb4 70E0      		ldi r23,hi8(0)
 1490 0bb6 40E0      		ldi r20,lo8(TaskStk+1023)
 1491 0bb8 50E0      		ldi r21,hi8(TaskStk+1023)
 1492 0bba 27E0      		ldi r18,lo8(7)
 1493 0bbc 0E94 0000 		call OSTaskCreate
 1494 0bc0 0E94 0000 		call OSStart
 1495 0bc4 80E0      		ldi r24,lo8(0)
 1496 0bc6 90E0      		ldi r25,hi8(0)
 1497               	/* epilogue start */
 1498 0bc8 0F90      		pop __tmp_reg__
 1499 0bca CF91      		pop r28
 1500 0bcc DF91      		pop r29
 1501 0bce 1F91      		pop r17
 1502 0bd0 0F91      		pop r16
 1503 0bd2 0895      		ret
 1504               		.size	main, .-main
 1505               	.global	temperindex
 1506               		.data
 1507               		.type	temperindex, @object
 1508               		.size	temperindex, 2
 1509               	temperindex:
 1510 0000 FFFF      		.word	-1
 1511               	.global	cdsindex
 1512               	.global	cdsindex
 1513               		.section .bss
 1514               		.type	cdsindex, @object
 1515               		.size	cdsindex, 2
 1516               	cdsindex:
 1517 0000 0000      		.skip 2,0
 1518               	.global	index
 1519               	.global	index
 1520               		.type	index, @object
 1521               		.size	index, 2
 1522               	index:
 1523 0002 0000      		.skip 2,0
 1524               	.global	signal
 1525               	.global	signal
 1526               		.type	signal, @object
 1527               		.size	signal, 2
 1528               	signal:
 1529 0004 0000      		.skip 2,0
 1530               	.global	mel_idx
 1531               	.global	mel_idx
 1532               		.type	mel_idx, @object
 1533               		.size	mel_idx, 2
 1534               	mel_idx:
 1535 0006 0000      		.skip 2,0
 1536               	.global	state
 1537               	.global	state
 1538               		.type	state, @object
 1539               		.size	state, 2
GAS LISTING C:\Users\82104\AppData\Local\Temp/ccHwZYd2.s 			page 28


 1540               	state:
 1541 0008 0000      		.skip 2,0
 1542               	.global	myMapTbl
 1543               		.data
 1544               		.type	myMapTbl, @object
 1545               		.size	myMapTbl, 5
 1546               	myMapTbl:
 1547 0002 01        		.byte	1
 1548 0003 03        		.byte	3
 1549 0004 0F        		.byte	15
 1550 0005 3F        		.byte	63
 1551 0006 7F        		.byte	127
 1552               	.global	MapTbl
 1553               		.type	MapTbl, @object
 1554               		.size	MapTbl, 8
 1555               	MapTbl:
 1556 0007 01        		.byte	1
 1557 0008 02        		.byte	2
 1558 0009 04        		.byte	4
 1559 000a 08        		.byte	8
 1560 000b 10        		.byte	16
 1561 000c 20        		.byte	32
 1562 000d 40        		.byte	64
 1563 000e 80        		.byte	-128
 1564               	.global	melody
 1565               		.type	melody, @object
 1566               		.size	melody, 2
 1567               	melody:
 1568 000f 2B        		.byte	43
 1569 0010 72        		.byte	114
 1570               		.type	C.31.1875, @object
 1571               		.size	C.31.1875, 12
 1572               	C.31.1875:
 1573 0011 3F        		.byte	63
 1574 0012 06        		.byte	6
 1575 0013 5B        		.byte	91
 1576 0014 4F        		.byte	79
 1577 0015 66        		.byte	102
 1578 0016 6D        		.byte	109
 1579 0017 7C        		.byte	124
 1580 0018 07        		.byte	7
 1581 0019 7F        		.byte	127
 1582 001a 67        		.byte	103
 1583 001b 40        		.byte	64
 1584 001c 00        		.byte	0
 1585               		.type	C.0.1650, @object
 1586               		.size	C.0.1650, 12
 1587               	C.0.1650:
 1588 001d 3F        		.byte	63
 1589 001e 06        		.byte	6
 1590 001f 5B        		.byte	91
 1591 0020 4F        		.byte	79
 1592 0021 66        		.byte	102
 1593 0022 6D        		.byte	109
 1594 0023 7C        		.byte	124
 1595 0024 07        		.byte	7
 1596 0025 7F        		.byte	127
GAS LISTING C:\Users\82104\AppData\Local\Temp/ccHwZYd2.s 			page 29


 1597 0026 67        		.byte	103
 1598 0027 40        		.byte	64
 1599 0028 00        		.byte	0
 1600               		.comm TaskStk,1152,1
 1601               		.comm checktemperbox,2,1
 1602               		.comm checkcdsQ,2,1
 1603               		.comm checkcdsbox,2,1
 1604               		.comm manageflag,2,1
 1605               		.comm checkTemperflag,2,1
 1606               		.comm totalcntcheckflag,2,1
 1607               		.comm checkcdsflag,2,1
 1608               		.comm temperature_value,2,1
 1609               		.comm value_int,1,1
 1610               		.comm value_deci,1,1
 1611               		.comm num,4,1
 1612               		.comm checkcds,10,1
 1613               		.comm fnd,8,1
 1614               		.comm cdss,10,1
 1615               	.global __do_copy_data
 1616               	.global __do_clear_bss
GAS LISTING C:\Users\82104\AppData\Local\Temp/ccHwZYd2.s 			page 30


DEFINED SYMBOLS
                            *ABS*:00000000 lab2.c
C:\Users\82104\AppData\Local\Temp/ccHwZYd2.s:2      *ABS*:0000003f __SREG__
C:\Users\82104\AppData\Local\Temp/ccHwZYd2.s:3      *ABS*:0000003e __SP_H__
C:\Users\82104\AppData\Local\Temp/ccHwZYd2.s:4      *ABS*:0000003d __SP_L__
C:\Users\82104\AppData\Local\Temp/ccHwZYd2.s:5      *ABS*:00000034 __CCP__
C:\Users\82104\AppData\Local\Temp/ccHwZYd2.s:6      *ABS*:00000000 __tmp_reg__
C:\Users\82104\AppData\Local\Temp/ccHwZYd2.s:7      *ABS*:00000001 __zero_reg__
C:\Users\82104\AppData\Local\Temp/ccHwZYd2.s:11     .text:00000000 InitI2C
C:\Users\82104\AppData\Local\Temp/ccHwZYd2.s:33     .text:00000026 write_twi_1byte_nopreset
C:\Users\82104\AppData\Local\Temp/ccHwZYd2.s:93     .text:000000a8 write_twi_0byte_nopreset
C:\Users\82104\AppData\Local\Temp/ccHwZYd2.s:142    .text:0000010e read_twi_2byte_preset
C:\Users\82104\AppData\Local\Temp/ccHwZYd2.s:207    .text:0000019a DisplayTemp
C:\Users\82104\AppData\Local\Temp/ccHwZYd2.s:1587   .data:0000001d C.0.1650
C:\Users\82104\AppData\Local\Temp/ccHwZYd2.s:382    .text:000002dc init_adc
C:\Users\82104\AppData\Local\Temp/ccHwZYd2.s:393    .text:000002e4 read_adc
C:\Users\82104\AppData\Local\Temp/ccHwZYd2.s:413    .text:000002fc show_adc
C:\Users\82104\AppData\Local\Temp/ccHwZYd2.s:428    .text:0000030c __vector_10
C:\Users\82104\AppData\Local\Temp/ccHwZYd2.s:1540   .bss:00000008 state
C:\Users\82104\AppData\Local\Temp/ccHwZYd2.s:1534   .bss:00000006 mel_idx
C:\Users\82104\AppData\Local\Temp/ccHwZYd2.s:1567   .data:0000000f melody
C:\Users\82104\AppData\Local\Temp/ccHwZYd2.s:479    .text:00000370 calculate
                            *COM*:00000004 num
                            *COM*:00000001 value_int
                            *COM*:00000001 value_deci
C:\Users\82104\AppData\Local\Temp/ccHwZYd2.s:573    .text:0000042e FireEmergence
                            *COM*:00000002 checkTemperflag
C:\Users\82104\AppData\Local\Temp/ccHwZYd2.s:1528   .bss:00000004 signal
C:\Users\82104\AppData\Local\Temp/ccHwZYd2.s:678    .text:000004f4 LightOFF
                            *COM*:00000002 checkcdsflag
C:\Users\82104\AppData\Local\Temp/ccHwZYd2.s:711    .text:00000530 LightON
C:\Users\82104\AppData\Local\Temp/ccHwZYd2.s:747    .text:00000572 __vector_6
C:\Users\82104\AppData\Local\Temp/ccHwZYd2.s:1522   .bss:00000002 index
C:\Users\82104\AppData\Local\Temp/ccHwZYd2.s:805    .text:000005e6 __vector_5
C:\Users\82104\AppData\Local\Temp/ccHwZYd2.s:856    .text:00000644 checkTemper
C:\Users\82104\AppData\Local\Temp/ccHwZYd2.s:1509   .data:00000000 temperindex
                            *COM*:00000002 checktemperbox
C:\Users\82104\AppData\Local\Temp/ccHwZYd2.s:1546   .data:00000002 myMapTbl
C:\Users\82104\AppData\Local\Temp/ccHwZYd2.s:910    .text:000006ae DisplayCDS
C:\Users\82104\AppData\Local\Temp/ccHwZYd2.s:1572   .data:00000011 C.31.1875
                            *COM*:00000002 checkcdsbox
                            *COM*:00000008 fnd
C:\Users\82104\AppData\Local\Temp/ccHwZYd2.s:976    .text:00000732 manageTask
                            *COM*:00000002 manageflag
C:\Users\82104\AppData\Local\Temp/ccHwZYd2.s:1042   .text:000007be TemperatureTask
                            *COM*:00000002 temperature_value
C:\Users\82104\AppData\Local\Temp/ccHwZYd2.s:1165   .text:000008f4 CntCDS
                            *COM*:0000000a cdss
                            *COM*:00000002 checkcdsQ
C:\Users\82104\AppData\Local\Temp/ccHwZYd2.s:1260   .text:000009aa cdsTask
C:\Users\82104\AppData\Local\Temp/ccHwZYd2.s:1516   .bss:00000000 cdsindex
C:\Users\82104\AppData\Local\Temp/ccHwZYd2.s:1355   .text:00000a82 main
                            *COM*:0000000a checkcds
                            *COM*:00000002 totalcntcheckflag
                            *COM*:00000480 TaskStk
C:\Users\82104\AppData\Local\Temp/ccHwZYd2.s:1555   .data:00000007 MapTbl

GAS LISTING C:\Users\82104\AppData\Local\Temp/ccHwZYd2.s 			page 31


UNDEFINED SYMBOLS
__udivmodqi4
__floatsisf
__addsf3
OSFlagPend
__divmodhi4
OSTimeDly
OSMboxPend
OSFlagPost
__gtsf2
OSMboxPost
__ltsf2
OSQPend
OSQPost
OSInit
OSMboxCreate
OSQCreate
OSFlagCreate
OSTaskCreate
OSStart
__do_copy_data
__do_clear_bss
