GAS LISTING C:\Users\82104\AppData\Local\Temp/ccvK1ud7.s 			page 1


   1               		.file	"lab2.c"
   2               	__SREG__ = 0x3f
   3               	__SP_H__ = 0x3e
   4               	__SP_L__ = 0x3d
   5               	__CCP__  = 0x34
   6               	__tmp_reg__ = 0
   7               	__zero_reg__ = 1
   8               		.text
   9               	.global	InitI2C
  10               		.type	InitI2C, @function
  11               	InitI2C:
  12               	/* prologue: function */
  13               	/* frame size = 0 */
  14 0000 8FEF      		ldi r24,lo8(-1)
  15 0002 84BB      		out 52-32,r24
  16 0004 8FE0      		ldi r24,lo8(15)
  17 0006 8093 6400 		sts 100,r24
  18 000a 83E0      		ldi r24,lo8(3)
  19 000c 82BB      		out 50-32,r24
  20 000e 80B5      		in r24,64-32
  21 0010 8B7F      		andi r24,lo8(-5)
  22 0012 80BD      		out 64-32,r24
  23 0014 1092 7100 		sts 113,__zero_reg__
  24 0018 80E2      		ldi r24,lo8(32)
  25 001a 8093 7000 		sts 112,r24
  26 001e 84E4      		ldi r24,lo8(68)
  27 0020 8093 7400 		sts 116,r24
  28               	/* epilogue start */
  29 0024 0895      		ret
  30               		.size	InitI2C, .-InitI2C
  31               	.global	write_twi_1byte_nopreset
  32               		.type	write_twi_1byte_nopreset, @function
  33               	write_twi_1byte_nopreset:
  34               	/* prologue: function */
  35               	/* frame size = 0 */
  36 0026 982F      		mov r25,r24
  37 0028 84EA      		ldi r24,lo8(-92)
  38 002a 8093 7400 		sts 116,r24
  39               	.L18:
  40 002e 8091 7400 		lds r24,116
  41 0032 87FF      		sbrs r24,7
  42 0034 00C0      		rjmp .L18
  43 0036 8091 7100 		lds r24,113
  44 003a 887F      		andi r24,lo8(-8)
  45 003c 8830      		cpi r24,lo8(8)
  46 003e 01F0      		breq .L5
  47 0040 8091 7100 		lds r24,113
  48 0044 887F      		andi r24,lo8(-8)
  49 0046 8031      		cpi r24,lo8(16)
  50 0048 01F4      		brne .L18
  51               	.L5:
  52 004a 88E9      		ldi r24,lo8(-104)
  53 004c 8093 7300 		sts 115,r24
  54 0050 84E8      		ldi r24,lo8(-124)
  55 0052 8093 7400 		sts 116,r24
  56               	.L19:
  57 0056 8091 7400 		lds r24,116
GAS LISTING C:\Users\82104\AppData\Local\Temp/ccvK1ud7.s 			page 2


  58 005a 87FF      		sbrs r24,7
  59 005c 00C0      		rjmp .L19
  60 005e 8091 7100 		lds r24,113
  61 0062 887F      		andi r24,lo8(-8)
  62 0064 8831      		cpi r24,lo8(24)
  63 0066 01F4      		brne .L19
  64 0068 9093 7300 		sts 115,r25
  65 006c 84E8      		ldi r24,lo8(-124)
  66 006e 8093 7400 		sts 116,r24
  67               	.L20:
  68 0072 8091 7400 		lds r24,116
  69 0076 87FF      		sbrs r24,7
  70 0078 00C0      		rjmp .L20
  71 007a 8091 7100 		lds r24,113
  72 007e 887F      		andi r24,lo8(-8)
  73 0080 8832      		cpi r24,lo8(40)
  74 0082 01F4      		brne .L20
  75 0084 6093 7300 		sts 115,r22
  76 0088 84E8      		ldi r24,lo8(-124)
  77 008a 8093 7400 		sts 116,r24
  78               	.L21:
  79 008e 8091 7400 		lds r24,116
  80 0092 87FF      		sbrs r24,7
  81 0094 00C0      		rjmp .L21
  82 0096 8091 7100 		lds r24,113
  83 009a 887F      		andi r24,lo8(-8)
  84 009c 8832      		cpi r24,lo8(40)
  85 009e 01F4      		brne .L21
  86 00a0 84E9      		ldi r24,lo8(-108)
  87 00a2 8093 7400 		sts 116,r24
  88               	/* epilogue start */
  89 00a6 0895      		ret
  90               		.size	write_twi_1byte_nopreset, .-write_twi_1byte_nopreset
  91               	.global	write_twi_0byte_nopreset
  92               		.type	write_twi_0byte_nopreset, @function
  93               	write_twi_0byte_nopreset:
  94               	/* prologue: function */
  95               	/* frame size = 0 */
  96 00a8 982F      		mov r25,r24
  97 00aa 84EA      		ldi r24,lo8(-92)
  98 00ac 8093 7400 		sts 116,r24
  99               	.L35:
 100 00b0 8091 7400 		lds r24,116
 101 00b4 87FF      		sbrs r24,7
 102 00b6 00C0      		rjmp .L35
 103 00b8 8091 7100 		lds r24,113
 104 00bc 887F      		andi r24,lo8(-8)
 105 00be 8830      		cpi r24,lo8(8)
 106 00c0 01F0      		breq .L25
 107 00c2 8091 7100 		lds r24,113
 108 00c6 887F      		andi r24,lo8(-8)
 109 00c8 8031      		cpi r24,lo8(16)
 110 00ca 01F4      		brne .L35
 111               	.L25:
 112 00cc 88E9      		ldi r24,lo8(-104)
 113 00ce 8093 7300 		sts 115,r24
 114 00d2 84E8      		ldi r24,lo8(-124)
GAS LISTING C:\Users\82104\AppData\Local\Temp/ccvK1ud7.s 			page 3


 115 00d4 8093 7400 		sts 116,r24
 116               	.L36:
 117 00d8 8091 7400 		lds r24,116
 118 00dc 87FF      		sbrs r24,7
 119 00de 00C0      		rjmp .L36
 120 00e0 8091 7100 		lds r24,113
 121 00e4 887F      		andi r24,lo8(-8)
 122 00e6 8831      		cpi r24,lo8(24)
 123 00e8 01F4      		brne .L36
 124 00ea 9093 7300 		sts 115,r25
 125 00ee 84E8      		ldi r24,lo8(-124)
 126 00f0 8093 7400 		sts 116,r24
 127               	.L37:
 128 00f4 8091 7400 		lds r24,116
 129 00f8 87FF      		sbrs r24,7
 130 00fa 00C0      		rjmp .L37
 131 00fc 8091 7100 		lds r24,113
 132 0100 887F      		andi r24,lo8(-8)
 133 0102 8832      		cpi r24,lo8(40)
 134 0104 01F4      		brne .L37
 135 0106 84E9      		ldi r24,lo8(-108)
 136 0108 8093 7400 		sts 116,r24
 137               	/* epilogue start */
 138 010c 0895      		ret
 139               		.size	write_twi_0byte_nopreset, .-write_twi_0byte_nopreset
 140               	.global	read_twi_2byte_preset
 141               		.type	read_twi_2byte_preset, @function
 142               	read_twi_2byte_preset:
 143               	/* prologue: function */
 144               	/* frame size = 0 */
 145 010e 84EA      		ldi r24,lo8(-92)
 146 0110 8093 7400 		sts 116,r24
 147               	.L53:
 148 0114 8091 7400 		lds r24,116
 149 0118 87FF      		sbrs r24,7
 150 011a 00C0      		rjmp .L53
 151 011c 8091 7100 		lds r24,113
 152 0120 887F      		andi r24,lo8(-8)
 153 0122 8830      		cpi r24,lo8(8)
 154 0124 01F0      		breq .L40
 155 0126 8091 7100 		lds r24,113
 156 012a 887F      		andi r24,lo8(-8)
 157 012c 8031      		cpi r24,lo8(16)
 158 012e 01F4      		brne .L53
 159               	.L40:
 160 0130 89E9      		ldi r24,lo8(-103)
 161 0132 8093 7300 		sts 115,r24
 162 0136 84E8      		ldi r24,lo8(-124)
 163 0138 8093 7400 		sts 116,r24
 164               	.L54:
 165 013c 8091 7400 		lds r24,116
 166 0140 87FF      		sbrs r24,7
 167 0142 00C0      		rjmp .L54
 168 0144 8091 7100 		lds r24,113
 169 0148 887F      		andi r24,lo8(-8)
 170 014a 8034      		cpi r24,lo8(64)
 171 014c 01F4      		brne .L54
GAS LISTING C:\Users\82104\AppData\Local\Temp/ccvK1ud7.s 			page 4


 172 014e 84EC      		ldi r24,lo8(-60)
 173 0150 8093 7400 		sts 116,r24
 174               	.L55:
 175 0154 8091 7400 		lds r24,116
 176 0158 87FF      		sbrs r24,7
 177 015a 00C0      		rjmp .L55
 178 015c 8091 7100 		lds r24,113
 179 0160 887F      		andi r24,lo8(-8)
 180 0162 8035      		cpi r24,lo8(80)
 181 0164 01F4      		brne .L55
 182 0166 3091 7300 		lds r19,115
 183 016a 84EC      		ldi r24,lo8(-60)
 184 016c 8093 7400 		sts 116,r24
 185               	.L56:
 186 0170 8091 7400 		lds r24,116
 187 0174 87FF      		sbrs r24,7
 188 0176 00C0      		rjmp .L56
 189 0178 8091 7100 		lds r24,113
 190 017c 887F      		andi r24,lo8(-8)
 191 017e 8035      		cpi r24,lo8(80)
 192 0180 01F4      		brne .L56
 193 0182 2091 7300 		lds r18,115
 194 0186 84E9      		ldi r24,lo8(-108)
 195 0188 8093 7400 		sts 116,r24
 196 018c 932F      		mov r25,r19
 197 018e 80E0      		ldi r24,lo8(0)
 198 0190 30E0      		ldi r19,lo8(0)
 199 0192 282B      		or r18,r24
 200 0194 392B      		or r19,r25
 201 0196 C901      		movw r24,r18
 202               	/* epilogue start */
 203 0198 0895      		ret
 204               		.size	read_twi_2byte_preset, .-read_twi_2byte_preset
 205               	.global	DisplayTemp
 206               		.type	DisplayTemp, @function
 207               	DisplayTemp:
 208 019a 6F92      		push r6
 209 019c 7F92      		push r7
 210 019e 8F92      		push r8
 211 01a0 9F92      		push r9
 212 01a2 AF92      		push r10
 213 01a4 BF92      		push r11
 214 01a6 CF92      		push r12
 215 01a8 DF92      		push r13
 216 01aa EF92      		push r14
 217 01ac FF92      		push r15
 218 01ae 0F93      		push r16
 219 01b0 1F93      		push r17
 220 01b2 DF93      		push r29
 221 01b4 CF93      		push r28
 222 01b6 CDB7      		in r28,__SP_L__
 223 01b8 DEB7      		in r29,__SP_H__
 224 01ba 6497      		sbiw r28,20
 225 01bc 0FB6      		in __tmp_reg__,__SREG__
 226 01be F894      		cli
 227 01c0 DEBF      		out __SP_H__,r29
 228 01c2 0FBE      		out __SREG__,__tmp_reg__
GAS LISTING C:\Users\82104\AppData\Local\Temp/ccvK1ud7.s 			page 5


 229 01c4 CDBF      		out __SP_L__,r28
 230               	/* prologue: function */
 231               	/* frame size = 20 */
 232 01c6 AC01      		movw r20,r24
 233 01c8 65E0      		ldi r22,lo8(5)
 234 01ca E62E      		mov r14,r22
 235 01cc F12C      		mov r15,__zero_reg__
 236 01ce EC0E      		add r14,r28
 237 01d0 FD1E      		adc r15,r29
 238 01d2 D701      		movw r26,r14
 239 01d4 E0E0      		ldi r30,lo8(C.0.1647)
 240 01d6 F0E0      		ldi r31,hi8(C.0.1647)
 241 01d8 8CE0      		ldi r24,lo8(12)
 242               	.L58:
 243 01da 0190      		ld r0,Z+
 244 01dc 0D92      		st X+,r0
 245 01de 8150      		subi r24,lo8(-(-1))
 246 01e0 01F4      		brne .L58
 247 01e2 81E0      		ldi r24,lo8(1)
 248 01e4 8983      		std Y+1,r24
 249 01e6 82E0      		ldi r24,lo8(2)
 250 01e8 8A83      		std Y+2,r24
 251 01ea 84E0      		ldi r24,lo8(4)
 252 01ec 8B83      		std Y+3,r24
 253 01ee 88E0      		ldi r24,lo8(8)
 254 01f0 8C83      		std Y+4,r24
 255 01f2 CC24      		clr r12
 256 01f4 C394      		inc r12
 257 01f6 A0E0      		ldi r26,lo8(0)
 258 01f8 B0E0      		ldi r27,hi8(0)
 259 01fa 30E4      		ldi r19,lo8(8000)
 260 01fc A32E      		mov r10,r19
 261 01fe 3FE1      		ldi r19,hi8(8000)
 262 0200 B32E      		mov r11,r19
 263 0202 21E1      		ldi r18,lo8(17)
 264 0204 622E      		mov r6,r18
 265 0206 712C      		mov r7,__zero_reg__
 266 0208 6C0E      		add r6,r28
 267 020a 7D1E      		adc r7,r29
 268 020c 4E01      		movw r8,r28
 269 020e 0894      		sec
 270 0210 811C      		adc r8,__zero_reg__
 271 0212 911C      		adc r9,__zero_reg__
 272               	.L65:
 273 0214 57FD      		sbrc r21,7
 274 0216 00C0      		rjmp .L59
 275 0218 9BE0      		ldi r25,lo8(11)
 276 021a D92E      		mov r13,r25
 277               	.L60:
 278 021c CA01      		movw r24,r20
 279 021e 8070      		andi r24,lo8(32512)
 280 0220 9F77      		andi r25,hi8(32512)
 281 0222 292F      		mov r18,r25
 282 0224 47FD      		sbrc r20,7
 283 0226 00C0      		rjmp .L61
 284 0228 00E0      		ldi r16,lo8(0)
 285 022a E0E0      		ldi r30,lo8(0)
GAS LISTING C:\Users\82104\AppData\Local\Temp/ccvK1ud7.s 			page 6


 286 022c F0E0      		ldi r31,hi8(0)
 287               	.L62:
 288 022e 822F      		mov r24,r18
 289 0230 6AE0      		ldi r22,lo8(10)
 290 0232 0E94 0000 		call __udivmodqi4
 291 0236 0E94 0000 		call __udivmodqi4
 292 023a 192F      		mov r17,r25
 293 023c 822F      		mov r24,r18
 294 023e 0E94 0000 		call __udivmodqi4
 295 0242 EE0D      		add r30,r14
 296 0244 FF1D      		adc r31,r15
 297 0246 8081      		ld r24,Z
 298 0248 85BB      		out 53-32,r24
 299 024a C092 6500 		sts 101,r12
 300 024e 20E0      		ldi r18,lo8(0)
 301 0250 30E0      		ldi r19,hi8(0)
 302               	.L71:
 303 0252 F501      		movw r30,r10
 304               	/* #APP */
 305               	 ;  105 "c:/winavr-20100110/lib/gcc/../../avr/include/util/delay_basic.h" 1
 306 0254 3197      		1: sbiw r30,1
 307 0256 01F4      		brne 1b
 308               	 ;  0 "" 2
 309               	/* #NOAPP */
 310 0258 2F5F      		subi r18,lo8(-(1))
 311 025a 3F4F      		sbci r19,hi8(-(1))
 312 025c 2430      		cpi r18,4
 313 025e 3105      		cpc r19,__zero_reg__
 314 0260 04F4      		brge .L72
 315 0262 098B      		std Y+17,r16
 316 0264 9A8B      		std Y+18,r25
 317 0266 1B8B      		std Y+19,r17
 318 0268 DC8A      		std Y+20,r13
 319 026a F301      		movw r30,r6
 320 026c E20F      		add r30,r18
 321 026e F31F      		adc r31,r19
 322 0270 8081      		ld r24,Z
 323 0272 F701      		movw r30,r14
 324 0274 E80F      		add r30,r24
 325 0276 F11D      		adc r31,__zero_reg__
 326 0278 8081      		ld r24,Z
 327 027a 85BB      		out 53-32,r24
 328 027c F401      		movw r30,r8
 329 027e E20F      		add r30,r18
 330 0280 F31F      		adc r31,r19
 331 0282 8081      		ld r24,Z
 332 0284 8093 6500 		sts 101,r24
 333 0288 2130      		cpi r18,1
 334 028a 3105      		cpc r19,__zero_reg__
 335 028c 01F4      		brne .L71
 336 028e AF9A      		sbi 53-32,7
 337 0290 00C0      		rjmp .L71
 338               	.L72:
 339 0292 1196      		adiw r26,1
 340 0294 A436      		cpi r26,100
 341 0296 B105      		cpc r27,__zero_reg__
 342 0298 01F0      		breq .+2
GAS LISTING C:\Users\82104\AppData\Local\Temp/ccvK1ud7.s 			page 7


 343 029a 00C0      		rjmp .L65
 344               	/* epilogue start */
 345 029c 6496      		adiw r28,20
 346 029e 0FB6      		in __tmp_reg__,__SREG__
 347 02a0 F894      		cli
 348 02a2 DEBF      		out __SP_H__,r29
 349 02a4 0FBE      		out __SREG__,__tmp_reg__
 350 02a6 CDBF      		out __SP_L__,r28
 351 02a8 CF91      		pop r28
 352 02aa DF91      		pop r29
 353 02ac 1F91      		pop r17
 354 02ae 0F91      		pop r16
 355 02b0 FF90      		pop r15
 356 02b2 EF90      		pop r14
 357 02b4 DF90      		pop r13
 358 02b6 CF90      		pop r12
 359 02b8 BF90      		pop r11
 360 02ba AF90      		pop r10
 361 02bc 9F90      		pop r9
 362 02be 8F90      		pop r8
 363 02c0 7F90      		pop r7
 364 02c2 6F90      		pop r6
 365 02c4 0895      		ret
 366               	.L61:
 367 02c6 05E0      		ldi r16,lo8(5)
 368 02c8 E5E0      		ldi r30,lo8(5)
 369 02ca F0E0      		ldi r31,hi8(5)
 370 02cc 00C0      		rjmp .L62
 371               	.L59:
 372 02ce 8AE0      		ldi r24,lo8(10)
 373 02d0 D82E      		mov r13,r24
 374 02d2 4095      		com r20
 375 02d4 5095      		com r21
 376 02d6 4150      		subi r20,lo8(-(-1))
 377 02d8 5040      		sbci r21,hi8(-(-1))
 378 02da 00C0      		rjmp .L60
 379               		.size	DisplayTemp, .-DisplayTemp
 380               	.global	init_adc
 381               		.type	init_adc, @function
 382               	init_adc:
 383               	/* prologue: function */
 384               	/* frame size = 0 */
 385 02dc 17B8      		out 39-32,__zero_reg__
 386 02de 87E8      		ldi r24,lo8(-121)
 387 02e0 86B9      		out 38-32,r24
 388               	/* epilogue start */
 389 02e2 0895      		ret
 390               		.size	init_adc, .-init_adc
 391               	.global	read_adc
 392               		.type	read_adc, @function
 393               	read_adc:
 394               	/* prologue: function */
 395               	/* frame size = 0 */
 396 02e4 369A      		sbi 38-32,6
 397               	.L76:
 398 02e6 349B      		sbis 38-32,4
 399 02e8 00C0      		rjmp .L76
GAS LISTING C:\Users\82104\AppData\Local\Temp/ccvK1ud7.s 			page 8


 400 02ea 24B1      		in r18,36-32
 401 02ec 45B1      		in r20,37-32
 402 02ee 942F      		mov r25,r20
 403 02f0 80E0      		ldi r24,lo8(0)
 404 02f2 30E0      		ldi r19,lo8(0)
 405 02f4 282B      		or r18,r24
 406 02f6 392B      		or r19,r25
 407 02f8 C901      		movw r24,r18
 408               	/* epilogue start */
 409 02fa 0895      		ret
 410               		.size	read_adc, .-read_adc
 411               	.global	show_adc
 412               		.type	show_adc, @function
 413               	show_adc:
 414               	/* prologue: function */
 415               	/* frame size = 0 */
 416 02fc 883C      		cpi r24,200
 417 02fe 9105      		cpc r25,__zero_reg__
 418 0300 00F0      		brlo .L83
 419 0302 1BBA      		out 59-32,__zero_reg__
 420 0304 0895      		ret
 421               	.L83:
 422 0306 8FEF      		ldi r24,lo8(-1)
 423 0308 8BBB      		out 59-32,r24
 424 030a 0895      		ret
 425               		.size	show_adc, .-show_adc
 426               	.global	__vector_10
 427               		.type	__vector_10, @function
 428               	__vector_10:
 429 030c 1F92      		push __zero_reg__
 430 030e 0F92      		push r0
 431 0310 0FB6      		in r0,__SREG__
 432 0312 0F92      		push r0
 433 0314 0BB6      		in r0,91-32
 434 0316 0F92      		push r0
 435 0318 1124      		clr __zero_reg__
 436 031a 8F93      		push r24
 437 031c 9F93      		push r25
 438 031e EF93      		push r30
 439 0320 FF93      		push r31
 440               	/* prologue: Signal */
 441               	/* frame size = 0 */
 442 0322 8091 0000 		lds r24,state
 443 0326 9091 0000 		lds r25,(state)+1
 444 032a 0197      		sbiw r24,1
 445 032c 01F0      		breq .L88
 446 032e 80E1      		ldi r24,lo8(16)
 447 0330 88BB      		out 56-32,r24
 448 0332 81E0      		ldi r24,lo8(1)
 449 0334 90E0      		ldi r25,hi8(1)
 450 0336 9093 0000 		sts (state)+1,r25
 451 033a 8093 0000 		sts state,r24
 452               	.L86:
 453 033e E091 0000 		lds r30,mel_idx
 454 0342 F091 0000 		lds r31,(mel_idx)+1
 455 0346 E050      		subi r30,lo8(-(melody))
 456 0348 F040      		sbci r31,hi8(-(melody))
GAS LISTING C:\Users\82104\AppData\Local\Temp/ccvK1ud7.s 			page 9


 457 034a 8081      		ld r24,Z
 458 034c 84BD      		out 68-32,r24
 459               	/* epilogue start */
 460 034e FF91      		pop r31
 461 0350 EF91      		pop r30
 462 0352 9F91      		pop r25
 463 0354 8F91      		pop r24
 464 0356 0F90      		pop r0
 465 0358 0BBE      		out 91-32,r0
 466 035a 0F90      		pop r0
 467 035c 0FBE      		out __SREG__,r0
 468 035e 0F90      		pop r0
 469 0360 1F90      		pop __zero_reg__
 470 0362 1895      		reti
 471               	.L88:
 472 0364 18BA      		out 56-32,__zero_reg__
 473 0366 1092 0000 		sts (state)+1,__zero_reg__
 474 036a 1092 0000 		sts state,__zero_reg__
 475 036e 00C0      		rjmp .L86
 476               		.size	__vector_10, .-__vector_10
 477               	.global	calculate
 478               		.type	calculate, @function
 479               	calculate:
 480 0370 EF92      		push r14
 481 0372 FF92      		push r15
 482 0374 0F93      		push r16
 483 0376 1F93      		push r17
 484               	/* prologue: function */
 485               	/* frame size = 0 */
 486 0378 9C01      		movw r18,r24
 487 037a 97FD      		sbrc r25,7
 488 037c 00C0      		rjmp .L90
 489 037e 8BE0      		ldi r24,lo8(11)
 490 0380 8093 0000 		sts num+3,r24
 491 0384 A901      		movw r20,r18
 492               	.L91:
 493 0386 9A01      		movw r18,r20
 494 0388 2070      		andi r18,lo8(32512)
 495 038a 3F77      		andi r19,hi8(32512)
 496 038c 3093 0000 		sts value_int,r19
 497 0390 4093 0000 		sts value_deci,r20
 498 0394 832F      		mov r24,r19
 499 0396 6AE0      		ldi r22,lo8(10)
 500 0398 0E94 0000 		call __udivmodqi4
 501 039c 0E94 0000 		call __udivmodqi4
 502 03a0 E92F      		mov r30,r25
 503 03a2 9093 0000 		sts num+2,r25
 504 03a6 832F      		mov r24,r19
 505 03a8 0E94 0000 		call __udivmodqi4
 506 03ac 9093 0000 		sts num+1,r25
 507 03b0 47FD      		sbrc r20,7
 508 03b2 00C0      		rjmp .L92
 509 03b4 80E0      		ldi r24,lo8(0)
 510 03b6 0F2E      		mov __tmp_reg__,r31
 511 03b8 FAE9      		ldi r31,lo8(0xc099999a)
 512 03ba EF2E      		mov r14,r31
 513 03bc F9E9      		ldi r31,hi8(0xc099999a)
GAS LISTING C:\Users\82104\AppData\Local\Temp/ccvK1ud7.s 			page 10


 514 03be FF2E      		mov r15,r31
 515 03c0 F9E9      		ldi r31,hlo8(0xc099999a)
 516 03c2 0F2F      		mov r16,r31
 517 03c4 F0EC      		ldi r31,hhi8(0xc099999a)
 518 03c6 1F2F      		mov r17,r31
 519 03c8 F02D      		mov r31,__tmp_reg__
 520               	.L93:
 521 03ca 8093 0000 		sts num,r24
 522 03ce 692F      		mov r22,r25
 523 03d0 70E0      		ldi r23,lo8(0)
 524 03d2 6051      		subi r22,lo8(-(-528))
 525 03d4 7240      		sbci r23,hi8(-(-528))
 526 03d6 2AE0      		ldi r18,lo8(10)
 527 03d8 E29F      		mul r30,r18
 528 03da 9001      		movw r18,r0
 529 03dc 1124      		clr r1
 530 03de 620F      		add r22,r18
 531 03e0 731F      		adc r23,r19
 532 03e2 8827      		clr r24
 533 03e4 77FD      		sbrc r23,7
 534 03e6 8095      		com r24
 535 03e8 982F      		mov r25,r24
 536 03ea 0E94 0000 		call __floatsisf
 537 03ee 9B01      		movw r18,r22
 538 03f0 AC01      		movw r20,r24
 539 03f2 C801      		movw r24,r16
 540 03f4 B701      		movw r22,r14
 541 03f6 0E94 0000 		call __addsf3
 542               	/* epilogue start */
 543 03fa 1F91      		pop r17
 544 03fc 0F91      		pop r16
 545 03fe FF90      		pop r15
 546 0400 EF90      		pop r14
 547 0402 0895      		ret
 548               	.L90:
 549 0404 8AE0      		ldi r24,lo8(10)
 550 0406 8093 0000 		sts num+3,r24
 551 040a A901      		movw r20,r18
 552 040c 4095      		com r20
 553 040e 5095      		com r21
 554 0410 4150      		subi r20,lo8(-(-1))
 555 0412 5040      		sbci r21,hi8(-(-1))
 556 0414 00C0      		rjmp .L91
 557               	.L92:
 558 0416 85E0      		ldi r24,lo8(5)
 559 0418 0F2E      		mov __tmp_reg__,r31
 560 041a FAE9      		ldi r31,lo8(0xc089999a)
 561 041c EF2E      		mov r14,r31
 562 041e F9E9      		ldi r31,hi8(0xc089999a)
 563 0420 FF2E      		mov r15,r31
 564 0422 F9E8      		ldi r31,hlo8(0xc089999a)
 565 0424 0F2F      		mov r16,r31
 566 0426 F0EC      		ldi r31,hhi8(0xc089999a)
 567 0428 1F2F      		mov r17,r31
 568 042a F02D      		mov r31,__tmp_reg__
 569 042c 00C0      		rjmp .L93
 570               		.size	calculate, .-calculate
GAS LISTING C:\Users\82104\AppData\Local\Temp/ccvK1ud7.s 			page 11


 571               	.global	FireEmergence
 572               		.type	FireEmergence, @function
 573               	FireEmergence:
 574 042e AF92      		push r10
 575 0430 BF92      		push r11
 576 0432 CF92      		push r12
 577 0434 DF92      		push r13
 578 0436 EF92      		push r14
 579 0438 FF92      		push r15
 580 043a 0F93      		push r16
 581 043c 1F93      		push r17
 582 043e DF93      		push r29
 583 0440 CF93      		push r28
 584 0442 0F92      		push __tmp_reg__
 585 0444 CDB7      		in r28,__SP_L__
 586 0446 DEB7      		in r29,__SP_H__
 587               	/* prologue: function */
 588               	/* frame size = 1 */
 589 0448 8FEF      		ldi r24,lo8(-1)
 590 044a 8ABB      		out 58-32,r24
 591 044c 87BB      		out 55-32,r24
 592 044e 83E0      		ldi r24,lo8(3)
 593 0450 85BD      		out 69-32,r24
 594 0452 8FEC      		ldi r24,lo8(-49)
 595 0454 82B9      		out 34-32,r24
 596 0456 8AE0      		ldi r24,lo8(10)
 597 0458 8ABF      		out 90-32,r24
 598 045a 80E3      		ldi r24,lo8(48)
 599 045c 89BF      		out 89-32,r24
 600 045e E091 0000 		lds r30,mel_idx
 601 0462 F091 0000 		lds r31,(mel_idx)+1
 602 0466 E050      		subi r30,lo8(-(melody))
 603 0468 F040      		sbci r31,hi8(-(melody))
 604 046a 8081      		ld r24,Z
 605 046c 84BD      		out 68-32,r24
 606               	/* #APP */
 607               	 ;  216 "lab2.c" 1
 608 046e 7894      		sei
 609               	 ;  0 "" 2
 610               	/* #NOAPP */
 611 0470 5E01      		movw r10,r28
 612 0472 0894      		sec
 613 0474 A11C      		adc r10,__zero_reg__
 614 0476 B11C      		adc r11,__zero_reg__
 615 0478 E0E4      		ldi r30,lo8(64)
 616 047a DE2E      		mov r13,r30
 617 047c 70E9      		ldi r23,lo8(400)
 618 047e E72E      		mov r14,r23
 619 0480 71E0      		ldi r23,hi8(400)
 620 0482 F72E      		mov r15,r23
 621 0484 CC24      		clr r12
 622 0486 C394      		inc r12
 623               	.L100:
 624 0488 8091 0000 		lds r24,checkTemperflag
 625 048c 9091 0000 		lds r25,(checkTemperflag)+1
 626 0490 6FEF      		ldi r22,lo8(-1)
 627 0492 42E8      		ldi r20,lo8(-126)
GAS LISTING C:\Users\82104\AppData\Local\Temp/ccvK1ud7.s 			page 12


 628 0494 20E0      		ldi r18,lo8(0)
 629 0496 30E0      		ldi r19,hi8(0)
 630 0498 8501      		movw r16,r10
 631 049a 0E94 0000 		call OSFlagPend
 632 049e 40E0      		ldi r20,lo8(0)
 633               	.L98:
 634 04a0 8091 0000 		lds r24,signal
 635 04a4 9091 0000 		lds r25,(signal)+1
 636 04a8 0197      		sbiw r24,1
 637 04aa 01F4      		brne .L96
 638 04ac 8BB3      		in r24,59-32
 639 04ae 8095      		com r24
 640 04b0 8BBB      		out 59-32,r24
 641 04b2 D7BE      		out 87-32,r13
 642 04b4 24EF      		ldi r18,lo8(500)
 643 04b6 31E0      		ldi r19,hi8(500)
 644               	.L97:
 645 04b8 C701      		movw r24,r14
 646               	/* #APP */
 647               	 ;  105 "c:/winavr-20100110/lib/gcc/../../avr/include/util/delay_basic.h" 1
 648 04ba 0197      		1: sbiw r24,1
 649 04bc 01F4      		brne 1b
 650               	 ;  0 "" 2
 651               	/* #NOAPP */
 652 04be 2150      		subi r18,lo8(-(-1))
 653 04c0 3040      		sbci r19,hi8(-(-1))
 654 04c2 01F4      		brne .L97
 655 04c4 8091 0000 		lds r24,mel_idx
 656 04c8 9091 0000 		lds r25,(mel_idx)+1
 657 04cc 0196      		adiw r24,1
 658 04ce 62E0      		ldi r22,lo8(2)
 659 04d0 70E0      		ldi r23,hi8(2)
 660 04d2 0E94 0000 		call __divmodhi4
 661 04d6 9093 0000 		sts (mel_idx)+1,r25
 662 04da 8093 0000 		sts mel_idx,r24
 663 04de 4F5F      		subi r20,lo8(-(1))
 664 04e0 483C      		cpi r20,lo8(-56)
 665 04e2 01F4      		brne .L98
 666               	.L99:
 667 04e4 81E0      		ldi r24,lo8(1)
 668 04e6 90E0      		ldi r25,hi8(1)
 669 04e8 0E94 0000 		call OSTimeDly
 670 04ec 00C0      		rjmp .L100
 671               	.L96:
 672 04ee C7BE      		out 87-32,r12
 673 04f0 00C0      		rjmp .L99
 674               		.size	FireEmergence, .-FireEmergence
 675               	.global	cdsTask
 676               		.type	cdsTask, @function
 677               	cdsTask:
 678 04f2 DF92      		push r13
 679 04f4 EF92      		push r14
 680 04f6 FF92      		push r15
 681 04f8 0F93      		push r16
 682 04fa 1F93      		push r17
 683 04fc DF93      		push r29
 684 04fe CF93      		push r28
GAS LISTING C:\Users\82104\AppData\Local\Temp/ccvK1ud7.s 			page 13


 685 0500 0F92      		push __tmp_reg__
 686 0502 CDB7      		in r28,__SP_L__
 687 0504 DEB7      		in r29,__SP_H__
 688               	/* prologue: function */
 689               	/* frame size = 1 */
 690 0506 8FEF      		ldi r24,lo8(-1)
 691 0508 8ABB      		out 58-32,r24
 692 050a 84BB      		out 52-32,r24
 693 050c 8FE0      		ldi r24,lo8(15)
 694 050e 8093 6400 		sts 100,r24
 695 0512 17B8      		out 39-32,__zero_reg__
 696 0514 87E8      		ldi r24,lo8(-121)
 697 0516 86B9      		out 38-32,r24
 698 0518 7E01      		movw r14,r28
 699 051a 0894      		sec
 700 051c E11C      		adc r14,__zero_reg__
 701 051e F11C      		adc r15,__zero_reg__
 702 0520 DD24      		clr r13
 703 0522 DA94      		dec r13
 704 0524 00C0      		rjmp .L107
 705               	.L109:
 706 0526 DBBA      		out 59-32,r13
 707               	.L106:
 708 0528 81E0      		ldi r24,lo8(1)
 709 052a 90E0      		ldi r25,hi8(1)
 710 052c 0E94 0000 		call OSTimeDly
 711               	.L107:
 712 0530 8091 0000 		lds r24,manageflag
 713 0534 9091 0000 		lds r25,(manageflag)+1
 714 0538 62E0      		ldi r22,lo8(2)
 715 053a 42E8      		ldi r20,lo8(-126)
 716 053c 20E0      		ldi r18,lo8(0)
 717 053e 30E0      		ldi r19,hi8(0)
 718 0540 8701      		movw r16,r14
 719 0542 0E94 0000 		call OSFlagPend
 720 0546 0E94 0000 		call read_adc
 721 054a 883C      		cpi r24,lo8(-56)
 722 054c 00F0      		brlo .L109
 723 054e 1BBA      		out 59-32,__zero_reg__
 724 0550 00C0      		rjmp .L106
 725               		.size	cdsTask, .-cdsTask
 726               	.global	__vector_6
 727               		.type	__vector_6, @function
 728               	__vector_6:
 729 0552 1F92      		push __zero_reg__
 730 0554 0F92      		push r0
 731 0556 0FB6      		in r0,__SREG__
 732 0558 0F92      		push r0
 733 055a 0BB6      		in r0,91-32
 734 055c 0F92      		push r0
 735 055e 1124      		clr __zero_reg__
 736 0560 2F93      		push r18
 737 0562 3F93      		push r19
 738 0564 4F93      		push r20
 739 0566 5F93      		push r21
 740 0568 6F93      		push r22
 741 056a 7F93      		push r23
GAS LISTING C:\Users\82104\AppData\Local\Temp/ccvK1ud7.s 			page 14


 742 056c 8F93      		push r24
 743 056e 9F93      		push r25
 744 0570 AF93      		push r26
 745 0572 BF93      		push r27
 746 0574 EF93      		push r30
 747 0576 FF93      		push r31
 748               	/* prologue: Signal */
 749               	/* frame size = 0 */
 750 0578 1092 0000 		sts (signal)+1,__zero_reg__
 751 057c 1092 0000 		sts signal,__zero_reg__
 752 0580 18BA      		out 56-32,__zero_reg__
 753 0582 1092 0000 		sts (state)+1,__zero_reg__
 754 0586 1092 0000 		sts state,__zero_reg__
 755 058a 81E0      		ldi r24,lo8(1)
 756 058c 87BF      		out 87-32,r24
 757 058e 81E0      		ldi r24,lo8(1)
 758 0590 90E0      		ldi r25,hi8(1)
 759 0592 0E94 0000 		call OSTimeDly
 760               	/* epilogue start */
 761 0596 FF91      		pop r31
 762 0598 EF91      		pop r30
 763 059a BF91      		pop r27
 764 059c AF91      		pop r26
 765 059e 9F91      		pop r25
 766 05a0 8F91      		pop r24
 767 05a2 7F91      		pop r23
 768 05a4 6F91      		pop r22
 769 05a6 5F91      		pop r21
 770 05a8 4F91      		pop r20
 771 05aa 3F91      		pop r19
 772 05ac 2F91      		pop r18
 773 05ae 0F90      		pop r0
 774 05b0 0BBE      		out 91-32,r0
 775 05b2 0F90      		pop r0
 776 05b4 0FBE      		out __SREG__,r0
 777 05b6 0F90      		pop r0
 778 05b8 1F90      		pop __zero_reg__
 779 05ba 1895      		reti
 780               		.size	__vector_6, .-__vector_6
 781               	.global	__vector_5
 782               		.type	__vector_5, @function
 783               	__vector_5:
 784 05bc 1F92      		push __zero_reg__
 785 05be 0F92      		push r0
 786 05c0 0FB6      		in r0,__SREG__
 787 05c2 0F92      		push r0
 788 05c4 0BB6      		in r0,91-32
 789 05c6 0F92      		push r0
 790 05c8 1124      		clr __zero_reg__
 791 05ca 2F93      		push r18
 792 05cc 3F93      		push r19
 793 05ce 4F93      		push r20
 794 05d0 5F93      		push r21
 795 05d2 6F93      		push r22
 796 05d4 7F93      		push r23
 797 05d6 8F93      		push r24
 798 05d8 9F93      		push r25
GAS LISTING C:\Users\82104\AppData\Local\Temp/ccvK1ud7.s 			page 15


 799 05da AF93      		push r26
 800 05dc BF93      		push r27
 801 05de EF93      		push r30
 802 05e0 FF93      		push r31
 803               	/* prologue: Signal */
 804               	/* frame size = 0 */
 805 05e2 81E0      		ldi r24,lo8(1)
 806 05e4 90E0      		ldi r25,hi8(1)
 807 05e6 9093 0000 		sts (signal)+1,r25
 808 05ea 8093 0000 		sts signal,r24
 809 05ee 0E94 0000 		call OSTimeDly
 810               	/* epilogue start */
 811 05f2 FF91      		pop r31
 812 05f4 EF91      		pop r30
 813 05f6 BF91      		pop r27
 814 05f8 AF91      		pop r26
 815 05fa 9F91      		pop r25
 816 05fc 8F91      		pop r24
 817 05fe 7F91      		pop r23
 818 0600 6F91      		pop r22
 819 0602 5F91      		pop r21
 820 0604 4F91      		pop r20
 821 0606 3F91      		pop r19
 822 0608 2F91      		pop r18
 823 060a 0F90      		pop r0
 824 060c 0BBE      		out 91-32,r0
 825 060e 0F90      		pop r0
 826 0610 0FBE      		out __SREG__,r0
 827 0612 0F90      		pop r0
 828 0614 1F90      		pop __zero_reg__
 829 0616 1895      		reti
 830               		.size	__vector_5, .-__vector_5
 831               	.global	checkTemper
 832               		.type	checkTemper, @function
 833               	checkTemper:
 834 0618 0F93      		push r16
 835 061a 1F93      		push r17
 836 061c DF93      		push r29
 837 061e CF93      		push r28
 838 0620 0F92      		push __tmp_reg__
 839 0622 CDB7      		in r28,__SP_L__
 840 0624 DEB7      		in r29,__SP_H__
 841               	/* prologue: function */
 842               	/* frame size = 1 */
 843 0626 8FEF      		ldi r24,lo8(-1)
 844 0628 8ABB      		out 58-32,r24
 845 062a 8E01      		movw r16,r28
 846 062c 0F5F      		subi r16,lo8(-(1))
 847 062e 1F4F      		sbci r17,hi8(-(1))
 848 0630 00C0      		rjmp .L117
 849               	.L115:
 850 0632 81E0      		ldi r24,lo8(1)
 851 0634 90E0      		ldi r25,hi8(1)
 852 0636 0E94 0000 		call OSTimeDly
 853               	.L117:
 854 063a 8091 0000 		lds r24,index
 855 063e 9091 0000 		lds r25,(index)+1
GAS LISTING C:\Users\82104\AppData\Local\Temp/ccvK1ud7.s 			page 16


 856 0642 97FD      		sbrc r25,7
 857 0644 00C0      		rjmp .L115
 858 0646 8091 0000 		lds r24,signal
 859 064a 9091 0000 		lds r25,(signal)+1
 860 064e 0197      		sbiw r24,1
 861 0650 01F4      		brne .L115
 862 0652 8091 0000 		lds r24,checktemperbox
 863 0656 9091 0000 		lds r25,(checktemperbox)+1
 864 065a 60E0      		ldi r22,lo8(0)
 865 065c 70E0      		ldi r23,hi8(0)
 866 065e A801      		movw r20,r16
 867 0660 0E94 0000 		call OSMboxPend
 868 0664 FC01      		movw r30,r24
 869 0666 0190      		ld __tmp_reg__,Z+
 870 0668 F081      		ld r31,Z
 871 066a E02D      		mov r30,__tmp_reg__
 872 066c 8FEF      		ldi r24,hi8(-1)
 873 066e EF3F      		cpi r30,lo8(-1)
 874 0670 F807      		cpc r31,r24
 875 0672 01F0      		breq .L119
 876 0674 E050      		subi r30,lo8(-(myMapTbl))
 877 0676 F040      		sbci r31,hi8(-(myMapTbl))
 878 0678 8081      		ld r24,Z
 879 067a 8BBB      		out 59-32,r24
 880 067c 00C0      		rjmp .L115
 881               	.L119:
 882 067e 1BBA      		out 59-32,__zero_reg__
 883 0680 00C0      		rjmp .L115
 884               		.size	checkTemper, .-checkTemper
 885               	.global	manageTask
 886               		.type	manageTask, @function
 887               	manageTask:
 888 0682 EF92      		push r14
 889 0684 FF92      		push r15
 890 0686 0F93      		push r16
 891 0688 1F93      		push r17
 892 068a DF93      		push r29
 893 068c CF93      		push r28
 894 068e 0F92      		push __tmp_reg__
 895 0690 CDB7      		in r28,__SP_L__
 896 0692 DEB7      		in r29,__SP_H__
 897               	/* prologue: function */
 898               	/* frame size = 1 */
 899 0694 8FEF      		ldi r24,lo8(-1)
 900 0696 84BB      		out 52-32,r24
 901 0698 8FE0      		ldi r24,lo8(15)
 902 069a 8093 6400 		sts 100,r24
 903 069e 8FEC      		ldi r24,lo8(-49)
 904 06a0 82B9      		out 34-32,r24
 905 06a2 8AE0      		ldi r24,lo8(10)
 906 06a4 8ABF      		out 90-32,r24
 907 06a6 80E3      		ldi r24,lo8(48)
 908 06a8 89BF      		out 89-32,r24
 909 06aa 8FB7      		in r24,__SREG__
 910 06ac 8068      		ori r24,lo8(-128)
 911 06ae 8FBF      		out __SREG__,r24
 912 06b0 8E01      		movw r16,r28
GAS LISTING C:\Users\82104\AppData\Local\Temp/ccvK1ud7.s 			page 17


 913 06b2 0F5F      		subi r16,lo8(-(1))
 914 06b4 1F4F      		sbci r17,hi8(-(1))
 915 06b6 EE24      		clr r14
 916 06b8 EA94      		dec r14
 917 06ba FE2C      		mov r15,r14
 918 06bc 00C0      		rjmp .L123
 919               	.L122:
 920 06be 81E0      		ldi r24,lo8(1)
 921 06c0 90E0      		ldi r25,hi8(1)
 922 06c2 0E94 0000 		call OSTimeDly
 923               	.L123:
 924 06c6 8091 0000 		lds r24,signal
 925 06ca 9091 0000 		lds r25,(signal)+1
 926 06ce 0197      		sbiw r24,1
 927 06d0 01F0      		breq .L125
 928               	.L121:
 929 06d2 8091 0000 		lds r24,signal
 930 06d6 9091 0000 		lds r25,(signal)+1
 931 06da 892B      		or r24,r25
 932 06dc 01F4      		brne .L122
 933 06de F092 0000 		sts (index)+1,r15
 934 06e2 E092 0000 		sts index,r14
 935 06e6 8091 0000 		lds r24,manageflag
 936 06ea 9091 0000 		lds r25,(manageflag)+1
 937 06ee 62E0      		ldi r22,lo8(2)
 938 06f0 41E0      		ldi r20,lo8(1)
 939 06f2 9801      		movw r18,r16
 940 06f4 0E94 0000 		call OSFlagPost
 941 06f8 00C0      		rjmp .L122
 942               	.L125:
 943 06fa 8091 0000 		lds r24,manageflag
 944 06fe 9091 0000 		lds r25,(manageflag)+1
 945 0702 61E0      		ldi r22,lo8(1)
 946 0704 41E0      		ldi r20,lo8(1)
 947 0706 9801      		movw r18,r16
 948 0708 0E94 0000 		call OSFlagPost
 949 070c 00C0      		rjmp .L121
 950               		.size	manageTask, .-manageTask
 951               	.global	TemperatureTask
 952               		.type	TemperatureTask, @function
 953               	TemperatureTask:
 954 070e 6F92      		push r6
 955 0710 7F92      		push r7
 956 0712 8F92      		push r8
 957 0714 9F92      		push r9
 958 0716 AF92      		push r10
 959 0718 BF92      		push r11
 960 071a CF92      		push r12
 961 071c DF92      		push r13
 962 071e EF92      		push r14
 963 0720 FF92      		push r15
 964 0722 0F93      		push r16
 965 0724 1F93      		push r17
 966 0726 DF93      		push r29
 967 0728 CF93      		push r28
 968 072a 0F92      		push __tmp_reg__
 969 072c CDB7      		in r28,__SP_L__
GAS LISTING C:\Users\82104\AppData\Local\Temp/ccvK1ud7.s 			page 18


 970 072e DEB7      		in r29,__SP_H__
 971               	/* prologue: function */
 972               	/* frame size = 1 */
 973 0730 8FEF      		ldi r24,lo8(-1)
 974 0732 8ABB      		out 58-32,r24
 975 0734 0E94 0000 		call InitI2C
 976 0738 81E0      		ldi r24,lo8(1)
 977 073a 60E0      		ldi r22,lo8(0)
 978 073c 0E94 0000 		call write_twi_1byte_nopreset
 979 0740 80E0      		ldi r24,lo8(0)
 980 0742 0E94 0000 		call write_twi_0byte_nopreset
 981 0746 3E01      		movw r6,r28
 982 0748 0894      		sec
 983 074a 611C      		adc r6,__zero_reg__
 984 074c 711C      		adc r7,__zero_reg__
 985               	.L137:
 986 074e 8091 0000 		lds r24,manageflag
 987 0752 9091 0000 		lds r25,(manageflag)+1
 988 0756 61E0      		ldi r22,lo8(1)
 989 0758 42E8      		ldi r20,lo8(-126)
 990 075a 20E0      		ldi r18,lo8(0)
 991 075c 30E0      		ldi r19,hi8(0)
 992 075e 8301      		movw r16,r6
 993 0760 0E94 0000 		call OSFlagPend
 994 0764 0E94 0000 		call read_twi_2byte_preset
 995 0768 4C01      		movw r8,r24
 996 076a 0E94 0000 		call DisplayTemp
 997 076e 8091 0000 		lds r24,index
 998 0772 9091 0000 		lds r25,(index)+1
 999 0776 8F5F      		subi r24,lo8(-1)
 1000 0778 9F4F      		sbci r25,hi8(-1)
 1001 077a 01F4      		brne .+2
 1002 077c 00C0      		rjmp .L138
 1003 077e C401      		movw r24,r8
 1004 0780 0E94 0000 		call calculate
 1005 0784 5B01      		movw r10,r22
 1006 0786 6C01      		movw r12,r24
 1007 0788 8091 0000 		lds r24,temperature_value
 1008 078c 9091 0000 		lds r25,(temperature_value)+1
 1009 0790 0E94 0000 		call calculate
 1010 0794 7B01      		movw r14,r22
 1011 0796 8C01      		movw r16,r24
 1012 0798 C601      		movw r24,r12
 1013 079a B501      		movw r22,r10
 1014 079c A801      		movw r20,r16
 1015 079e 9701      		movw r18,r14
 1016 07a0 0E94 0000 		call __gtsf2
 1017 07a4 1816      		cp __zero_reg__,r24
 1018 07a6 04F4      		brge .L129
 1019 07a8 8091 0000 		lds r24,index
 1020 07ac 9091 0000 		lds r25,(index)+1
 1021 07b0 0497      		sbiw r24,4
 1022 07b2 01F0      		breq .L139
 1023 07b4 8091 0000 		lds r24,checktemperbox
 1024 07b8 9091 0000 		lds r25,(checktemperbox)+1
 1025 07bc 60E0      		ldi r22,lo8(index)
 1026 07be 70E0      		ldi r23,hi8(index)
GAS LISTING C:\Users\82104\AppData\Local\Temp/ccvK1ud7.s 			page 19


 1027 07c0 0E94 0000 		call OSMboxPost
 1028 07c4 8091 0000 		lds r24,index
 1029 07c8 9091 0000 		lds r25,(index)+1
 1030 07cc 0196      		adiw r24,1
 1031 07ce 9093 0000 		sts (index)+1,r25
 1032 07d2 8093 0000 		sts index,r24
 1033               	.L129:
 1034 07d6 C601      		movw r24,r12
 1035 07d8 B501      		movw r22,r10
 1036 07da A801      		movw r20,r16
 1037 07dc 9701      		movw r18,r14
 1038 07de 0E94 0000 		call __ltsf2
 1039 07e2 8823      		tst r24
 1040 07e4 04F4      		brge .L132
 1041 07e6 8091 0000 		lds r24,index
 1042 07ea 9091 0000 		lds r25,(index)+1
 1043 07ee 97FD      		sbrc r25,7
 1044 07f0 00C0      		rjmp .L132
 1045 07f2 0197      		sbiw r24,1
 1046 07f4 9093 0000 		sts (index)+1,r25
 1047 07f8 8093 0000 		sts index,r24
 1048 07fc 8091 0000 		lds r24,checktemperbox
 1049 0800 9091 0000 		lds r25,(checktemperbox)+1
 1050 0804 60E0      		ldi r22,lo8(index)
 1051 0806 70E0      		ldi r23,hi8(index)
 1052 0808 0E94 0000 		call OSMboxPost
 1053               	.L132:
 1054 080c 9092 0000 		sts (temperature_value)+1,r9
 1055 0810 8092 0000 		sts temperature_value,r8
 1056 0814 00C0      		rjmp .L137
 1057               	.L138:
 1058 0816 9092 0000 		sts (temperature_value)+1,r9
 1059 081a 8092 0000 		sts temperature_value,r8
 1060 081e 1092 0000 		sts (index)+1,__zero_reg__
 1061 0822 1092 0000 		sts index,__zero_reg__
 1062 0826 00C0      		rjmp .L137
 1063               	.L139:
 1064 0828 8091 0000 		lds r24,checkTemperflag
 1065 082c 9091 0000 		lds r25,(checkTemperflag)+1
 1066 0830 6FEF      		ldi r22,lo8(-1)
 1067 0832 41E0      		ldi r20,lo8(1)
 1068 0834 9301      		movw r18,r6
 1069 0836 0E94 0000 		call OSFlagPost
 1070 083a 1092 0000 		sts (index)+1,__zero_reg__
 1071 083e 1092 0000 		sts index,__zero_reg__
 1072 0842 00C0      		rjmp .L129
 1073               		.size	TemperatureTask, .-TemperatureTask
 1074               	.global	main
 1075               		.type	main, @function
 1076               	main:
 1077 0844 0F93      		push r16
 1078 0846 1F93      		push r17
 1079 0848 DF93      		push r29
 1080 084a CF93      		push r28
 1081 084c 0F92      		push __tmp_reg__
 1082 084e CDB7      		in r28,__SP_L__
 1083 0850 DEB7      		in r29,__SP_H__
GAS LISTING C:\Users\82104\AppData\Local\Temp/ccvK1ud7.s 			page 20


 1084               	/* prologue: function */
 1085               	/* frame size = 1 */
 1086 0852 0E94 0000 		call OSInit
 1087               	/* #APP */
 1088               	 ;  66 "lab2.c" 1
 1089 0856 F894      		cli
 1090               	 ;  0 "" 2
 1091               	/* #NOAPP */
 1092 0858 87E0      		ldi r24,lo8(7)
 1093 085a 83BF      		out 83-32,r24
 1094 085c 81E0      		ldi r24,lo8(1)
 1095 085e 87BF      		out 87-32,r24
 1096 0860 84E6      		ldi r24,lo8(100)
 1097 0862 82BF      		out 82-32,r24
 1098 0864 80E0      		ldi r24,lo8(0)
 1099 0866 90E0      		ldi r25,hi8(0)
 1100 0868 0E94 0000 		call OSMboxCreate
 1101 086c 9093 0000 		sts (checktemperbox)+1,r25
 1102 0870 8093 0000 		sts checktemperbox,r24
 1103 0874 80E0      		ldi r24,lo8(0)
 1104 0876 8E01      		movw r16,r28
 1105 0878 0F5F      		subi r16,lo8(-(1))
 1106 087a 1F4F      		sbci r17,hi8(-(1))
 1107 087c B801      		movw r22,r16
 1108 087e 0E94 0000 		call OSFlagCreate
 1109 0882 9093 0000 		sts (manageflag)+1,r25
 1110 0886 8093 0000 		sts manageflag,r24
 1111 088a 80E0      		ldi r24,lo8(0)
 1112 088c B801      		movw r22,r16
 1113 088e 0E94 0000 		call OSFlagCreate
 1114 0892 9093 0000 		sts (checkTemperflag)+1,r25
 1115 0896 8093 0000 		sts checkTemperflag,r24
 1116               	/* #APP */
 1117               	 ;  76 "lab2.c" 1
 1118 089a 7894      		sei
 1119               	 ;  0 "" 2
 1120               	/* #NOAPP */
 1121 089c 80E0      		ldi r24,lo8(gs(manageTask))
 1122 089e 90E0      		ldi r25,hi8(gs(manageTask))
 1123 08a0 60E0      		ldi r22,lo8(0)
 1124 08a2 70E0      		ldi r23,hi8(0)
 1125 08a4 40E0      		ldi r20,lo8(TaskStk+127)
 1126 08a6 50E0      		ldi r21,hi8(TaskStk+127)
 1127 08a8 20E0      		ldi r18,lo8(0)
 1128 08aa 0E94 0000 		call OSTaskCreate
 1129 08ae 80E0      		ldi r24,lo8(gs(TemperatureTask))
 1130 08b0 90E0      		ldi r25,hi8(gs(TemperatureTask))
 1131 08b2 60E0      		ldi r22,lo8(0)
 1132 08b4 70E0      		ldi r23,hi8(0)
 1133 08b6 40E0      		ldi r20,lo8(TaskStk+639)
 1134 08b8 50E0      		ldi r21,hi8(TaskStk+639)
 1135 08ba 24E0      		ldi r18,lo8(4)
 1136 08bc 0E94 0000 		call OSTaskCreate
 1137 08c0 80E0      		ldi r24,lo8(gs(cdsTask))
 1138 08c2 90E0      		ldi r25,hi8(gs(cdsTask))
 1139 08c4 60E0      		ldi r22,lo8(0)
 1140 08c6 70E0      		ldi r23,hi8(0)
GAS LISTING C:\Users\82104\AppData\Local\Temp/ccvK1ud7.s 			page 21


 1141 08c8 40E0      		ldi r20,lo8(TaskStk+255)
 1142 08ca 50E0      		ldi r21,hi8(TaskStk+255)
 1143 08cc 21E0      		ldi r18,lo8(1)
 1144 08ce 0E94 0000 		call OSTaskCreate
 1145 08d2 80E0      		ldi r24,lo8(gs(checkTemper))
 1146 08d4 90E0      		ldi r25,hi8(gs(checkTemper))
 1147 08d6 60E0      		ldi r22,lo8(0)
 1148 08d8 70E0      		ldi r23,hi8(0)
 1149 08da 40E0      		ldi r20,lo8(TaskStk+511)
 1150 08dc 50E0      		ldi r21,hi8(TaskStk+511)
 1151 08de 23E0      		ldi r18,lo8(3)
 1152 08e0 0E94 0000 		call OSTaskCreate
 1153 08e4 80E0      		ldi r24,lo8(gs(FireEmergence))
 1154 08e6 90E0      		ldi r25,hi8(gs(FireEmergence))
 1155 08e8 60E0      		ldi r22,lo8(0)
 1156 08ea 70E0      		ldi r23,hi8(0)
 1157 08ec 40E0      		ldi r20,lo8(TaskStk+383)
 1158 08ee 50E0      		ldi r21,hi8(TaskStk+383)
 1159 08f0 22E0      		ldi r18,lo8(2)
 1160 08f2 0E94 0000 		call OSTaskCreate
 1161 08f6 0E94 0000 		call OSStart
 1162 08fa 80E0      		ldi r24,lo8(0)
 1163 08fc 90E0      		ldi r25,hi8(0)
 1164               	/* epilogue start */
 1165 08fe 0F90      		pop __tmp_reg__
 1166 0900 CF91      		pop r28
 1167 0902 DF91      		pop r29
 1168 0904 1F91      		pop r17
 1169 0906 0F91      		pop r16
 1170 0908 0895      		ret
 1171               		.size	main, .-main
 1172               	.global	index
 1173               		.data
 1174               		.type	index, @object
 1175               		.size	index, 2
 1176               	index:
 1177 0000 FFFF      		.word	-1
 1178               	.global	signal
 1179               	.global	signal
 1180               		.section .bss
 1181               		.type	signal, @object
 1182               		.size	signal, 2
 1183               	signal:
 1184 0000 0000      		.skip 2,0
 1185               	.global	mel_idx
 1186               	.global	mel_idx
 1187               		.type	mel_idx, @object
 1188               		.size	mel_idx, 2
 1189               	mel_idx:
 1190 0002 0000      		.skip 2,0
 1191               	.global	state
 1192               	.global	state
 1193               		.type	state, @object
 1194               		.size	state, 2
 1195               	state:
 1196 0004 0000      		.skip 2,0
 1197               	.global	myMapTbl
GAS LISTING C:\Users\82104\AppData\Local\Temp/ccvK1ud7.s 			page 22


 1198               		.data
 1199               		.type	myMapTbl, @object
 1200               		.size	myMapTbl, 5
 1201               	myMapTbl:
 1202 0002 01        		.byte	1
 1203 0003 03        		.byte	3
 1204 0004 0F        		.byte	15
 1205 0005 3F        		.byte	63
 1206 0006 7F        		.byte	127
 1207               	.global	melody
 1208               		.type	melody, @object
 1209               		.size	melody, 2
 1210               	melody:
 1211 0007 2B        		.byte	43
 1212 0008 72        		.byte	114
 1213               		.type	C.0.1647, @object
 1214               		.size	C.0.1647, 12
 1215               	C.0.1647:
 1216 0009 3F        		.byte	63
 1217 000a 06        		.byte	6
 1218 000b 5B        		.byte	91
 1219 000c 4F        		.byte	79
 1220 000d 66        		.byte	102
 1221 000e 6D        		.byte	109
 1222 000f 7C        		.byte	124
 1223 0010 07        		.byte	7
 1224 0011 7F        		.byte	127
 1225 0012 67        		.byte	103
 1226 0013 40        		.byte	64
 1227 0014 00        		.byte	0
 1228               		.comm TaskStk,640,1
 1229               		.comm checktemperbox,2,1
 1230               		.comm manageflag,2,1
 1231               		.comm checkTemperflag,2,1
 1232               		.comm temperature_value,2,1
 1233               		.comm value_int,1,1
 1234               		.comm value_deci,1,1
 1235               		.comm num,4,1
 1236               	.global __do_copy_data
 1237               	.global __do_clear_bss
GAS LISTING C:\Users\82104\AppData\Local\Temp/ccvK1ud7.s 			page 23


DEFINED SYMBOLS
                            *ABS*:00000000 lab2.c
C:\Users\82104\AppData\Local\Temp/ccvK1ud7.s:2      *ABS*:0000003f __SREG__
C:\Users\82104\AppData\Local\Temp/ccvK1ud7.s:3      *ABS*:0000003e __SP_H__
C:\Users\82104\AppData\Local\Temp/ccvK1ud7.s:4      *ABS*:0000003d __SP_L__
C:\Users\82104\AppData\Local\Temp/ccvK1ud7.s:5      *ABS*:00000034 __CCP__
C:\Users\82104\AppData\Local\Temp/ccvK1ud7.s:6      *ABS*:00000000 __tmp_reg__
C:\Users\82104\AppData\Local\Temp/ccvK1ud7.s:7      *ABS*:00000001 __zero_reg__
C:\Users\82104\AppData\Local\Temp/ccvK1ud7.s:11     .text:00000000 InitI2C
C:\Users\82104\AppData\Local\Temp/ccvK1ud7.s:33     .text:00000026 write_twi_1byte_nopreset
C:\Users\82104\AppData\Local\Temp/ccvK1ud7.s:93     .text:000000a8 write_twi_0byte_nopreset
C:\Users\82104\AppData\Local\Temp/ccvK1ud7.s:142    .text:0000010e read_twi_2byte_preset
C:\Users\82104\AppData\Local\Temp/ccvK1ud7.s:207    .text:0000019a DisplayTemp
C:\Users\82104\AppData\Local\Temp/ccvK1ud7.s:1215   .data:00000009 C.0.1647
C:\Users\82104\AppData\Local\Temp/ccvK1ud7.s:382    .text:000002dc init_adc
C:\Users\82104\AppData\Local\Temp/ccvK1ud7.s:393    .text:000002e4 read_adc
C:\Users\82104\AppData\Local\Temp/ccvK1ud7.s:413    .text:000002fc show_adc
C:\Users\82104\AppData\Local\Temp/ccvK1ud7.s:428    .text:0000030c __vector_10
C:\Users\82104\AppData\Local\Temp/ccvK1ud7.s:1195   .bss:00000004 state
C:\Users\82104\AppData\Local\Temp/ccvK1ud7.s:1189   .bss:00000002 mel_idx
C:\Users\82104\AppData\Local\Temp/ccvK1ud7.s:1210   .data:00000007 melody
C:\Users\82104\AppData\Local\Temp/ccvK1ud7.s:479    .text:00000370 calculate
                            *COM*:00000004 num
                            *COM*:00000001 value_int
                            *COM*:00000001 value_deci
C:\Users\82104\AppData\Local\Temp/ccvK1ud7.s:573    .text:0000042e FireEmergence
                            *COM*:00000002 checkTemperflag
C:\Users\82104\AppData\Local\Temp/ccvK1ud7.s:1183   .bss:00000000 signal
C:\Users\82104\AppData\Local\Temp/ccvK1ud7.s:677    .text:000004f2 cdsTask
                            *COM*:00000002 manageflag
C:\Users\82104\AppData\Local\Temp/ccvK1ud7.s:728    .text:00000552 __vector_6
C:\Users\82104\AppData\Local\Temp/ccvK1ud7.s:783    .text:000005bc __vector_5
C:\Users\82104\AppData\Local\Temp/ccvK1ud7.s:833    .text:00000618 checkTemper
C:\Users\82104\AppData\Local\Temp/ccvK1ud7.s:1176   .data:00000000 index
                            *COM*:00000002 checktemperbox
C:\Users\82104\AppData\Local\Temp/ccvK1ud7.s:1201   .data:00000002 myMapTbl
C:\Users\82104\AppData\Local\Temp/ccvK1ud7.s:887    .text:00000682 manageTask
C:\Users\82104\AppData\Local\Temp/ccvK1ud7.s:953    .text:0000070e TemperatureTask
                            *COM*:00000002 temperature_value
C:\Users\82104\AppData\Local\Temp/ccvK1ud7.s:1076   .text:00000844 main
                            *COM*:00000280 TaskStk

UNDEFINED SYMBOLS
__udivmodqi4
__floatsisf
__addsf3
OSFlagPend
__divmodhi4
OSTimeDly
OSMboxPend
OSFlagPost
__gtsf2
OSMboxPost
__ltsf2
OSInit
OSMboxCreate
OSFlagCreate
GAS LISTING C:\Users\82104\AppData\Local\Temp/ccvK1ud7.s 			page 24


OSTaskCreate
OSStart
__do_copy_data
__do_clear_bss
